ARM GAS  /tmp/ccTu6EpX.s 			page 1


   1              		.syntax unified
   2              		.cpu cortex-m3
   3              		.fpu softvfp
   4              		.eabi_attribute 20, 1
   5              		.eabi_attribute 21, 1
   6              		.eabi_attribute 23, 3
   7              		.eabi_attribute 24, 1
   8              		.eabi_attribute 25, 1
   9              		.eabi_attribute 26, 1
  10              		.eabi_attribute 30, 4
  11              		.eabi_attribute 34, 1
  12              		.eabi_attribute 18, 4
  13              		.thumb
  14              		.file	"i2c.c"
  15              		.section	.text.MX_I2C1_Init,"ax",%progbits
  16              		.align	1
  17              		.global	MX_I2C1_Init
  18              		.thumb
  19              		.thumb_func
  21              	MX_I2C1_Init:
  22              		@ args = 0, pretend = 0, frame = 0
  23              		@ frame_needed = 0, uses_anonymous_args = 0
  24 0000 08B5     		push	{r3, lr}
  25 0002 0C48     		ldr	r0, .L4
  26 0004 0C4B     		ldr	r3, .L4+4
  27 0006 DFF834E0 		ldr	lr, .L4+8
  28 000a 4FF48042 		mov	r2, #16384
  29 000e 80E80840 		stmia	r0, {r3, lr}
  30 0012 0023     		movs	r3, #0
  31 0014 8360     		str	r3, [r0, #8]
  32 0016 C360     		str	r3, [r0, #12]
  33 0018 0261     		str	r2, [r0, #16]
  34 001a 4361     		str	r3, [r0, #20]
  35 001c 8361     		str	r3, [r0, #24]
  36 001e C361     		str	r3, [r0, #28]
  37 0020 0362     		str	r3, [r0, #32]
  38 0022 FFF7FEFF 		bl	HAL_I2C_Init
  39 0026 18B1     		cbz	r0, .L1
  40 0028 BDE80840 		pop	{r3, lr}
  41 002c FFF7FEBF 		b	Error_Handler
  42              	.L1:
  43 0030 08BD     		pop	{r3, pc}
  44              	.L5:
  45 0032 00BF     		.align	2
  46              	.L4:
  47 0034 00000000 		.word	hi2c1
  48 0038 00540040 		.word	1073763328
  49 003c A0860100 		.word	100000
  51              		.section	.text.HAL_I2C_MspInit,"ax",%progbits
  52              		.align	1
  53              		.global	HAL_I2C_MspInit
  54              		.thumb
  55              		.thumb_func
  57              	HAL_I2C_MspInit:
  58              		@ args = 0, pretend = 0, frame = 24
  59              		@ frame_needed = 0, uses_anonymous_args = 0
  60 0000 7FB5     		push	{r0, r1, r2, r3, r4, r5, r6, lr}
ARM GAS  /tmp/ccTu6EpX.s 			page 2


  61 0002 0268     		ldr	r2, [r0]
  62 0004 0C4B     		ldr	r3, .L8
  63 0006 9A42     		cmp	r2, r3
  64 0008 13D1     		bne	.L6
  65 000a C023     		movs	r3, #192
  66 000c 0293     		str	r3, [sp, #8]
  67 000e 1223     		movs	r3, #18
  68 0010 0393     		str	r3, [sp, #12]
  69 0012 0A48     		ldr	r0, .L8+4
  70 0014 0323     		movs	r3, #3
  71 0016 02A9     		add	r1, sp, #8
  72 0018 0593     		str	r3, [sp, #20]
  73 001a FFF7FEFF 		bl	HAL_GPIO_Init
  74 001e 084B     		ldr	r3, .L8+8
  75 0020 DA69     		ldr	r2, [r3, #28]
  76 0022 42F40012 		orr	r2, r2, #2097152
  77 0026 DA61     		str	r2, [r3, #28]
  78 0028 DB69     		ldr	r3, [r3, #28]
  79 002a 03F40013 		and	r3, r3, #2097152
  80 002e 0193     		str	r3, [sp, #4]
  81 0030 019B     		ldr	r3, [sp, #4]
  82              	.L6:
  83 0032 07B0     		add	sp, sp, #28
  84              		@ sp needed
  85 0034 5DF804FB 		ldr	pc, [sp], #4
  86              	.L9:
  87              		.align	2
  88              	.L8:
  89 0038 00540040 		.word	1073763328
  90 003c 000C0140 		.word	1073810432
  91 0040 00100240 		.word	1073876992
  93              		.section	.text.HAL_I2C_MspDeInit,"ax",%progbits
  94              		.align	1
  95              		.global	HAL_I2C_MspDeInit
  96              		.thumb
  97              		.thumb_func
  99              	HAL_I2C_MspDeInit:
 100              		@ args = 0, pretend = 0, frame = 0
 101              		@ frame_needed = 0, uses_anonymous_args = 0
 102              		@ link register save eliminated.
 103 0000 0268     		ldr	r2, [r0]
 104 0002 064B     		ldr	r3, .L12
 105 0004 9A42     		cmp	r2, r3
 106 0006 08D1     		bne	.L10
 107 0008 054A     		ldr	r2, .L12+4
 108 000a 0648     		ldr	r0, .L12+8
 109 000c D369     		ldr	r3, [r2, #28]
 110 000e C021     		movs	r1, #192
 111 0010 23F40013 		bic	r3, r3, #2097152
 112 0014 D361     		str	r3, [r2, #28]
 113 0016 FFF7FEBF 		b	HAL_GPIO_DeInit
 114              	.L10:
 115 001a 7047     		bx	lr
 116              	.L13:
 117              		.align	2
 118              	.L12:
 119 001c 00540040 		.word	1073763328
ARM GAS  /tmp/ccTu6EpX.s 			page 3


 120 0020 00100240 		.word	1073876992
 121 0024 000C0140 		.word	1073810432
 123              		.comm	hi2c1,60,4
 124              		.ident	"GCC: (4.9.2-10+14~bpo8+1) 4.9.2"
ARM GAS  /tmp/ccTu6EpX.s 			page 4

