ARM GAS  /tmp/cc9ztnS9.s 			page 1


   1              		.syntax unified
   2              		.cpu cortex-m3
   3              		.fpu softvfp
   4              		.eabi_attribute 20, 1
   5              		.eabi_attribute 21, 1
   6              		.eabi_attribute 23, 3
   7              		.eabi_attribute 24, 1
   8              		.eabi_attribute 25, 1
   9              		.eabi_attribute 26, 1
  10              		.eabi_attribute 30, 4
  11              		.eabi_attribute 34, 1
  12              		.eabi_attribute 18, 4
  13              		.thumb
  14              		.file	"stm32f1xx_hal_dma.c"
  15              		.section	.text.HAL_DMA_Init,"ax",%progbits
  16              		.align	1
  17              		.global	HAL_DMA_Init
  18              		.thumb
  19              		.thumb_func
  21              	HAL_DMA_Init:
  22              		@ args = 0, pretend = 0, frame = 0
  23              		@ frame_needed = 0, uses_anonymous_args = 0
  24 0000 10B5     		push	{r4, lr}
  25 0002 00B3     		cbz	r0, .L4
  26 0004 90F82130 		ldrb	r3, [r0, #33]	@ zero_extendqisi2
  27 0008 0BB9     		cbnz	r3, .L3
  28 000a 80F82030 		strb	r3, [r0, #32]
  29              	.L3:
  30 000e 4268     		ldr	r2, [r0, #4]
  31 0010 8168     		ldr	r1, [r0, #8]
  32 0012 0468     		ldr	r4, [r0]
  33 0014 1143     		orrs	r1, r1, r2
  34 0016 C268     		ldr	r2, [r0, #12]
  35 0018 2368     		ldr	r3, [r4]
  36 001a 1143     		orrs	r1, r1, r2
  37 001c 0269     		ldr	r2, [r0, #16]
  38 001e 23F47F53 		bic	r3, r3, #16320
  39 0022 1143     		orrs	r1, r1, r2
  40 0024 4269     		ldr	r2, [r0, #20]
  41 0026 23F03003 		bic	r3, r3, #48
  42 002a 1143     		orrs	r1, r1, r2
  43 002c 8269     		ldr	r2, [r0, #24]
  44 002e 1143     		orrs	r1, r1, r2
  45 0030 C269     		ldr	r2, [r0, #28]
  46 0032 0A43     		orrs	r2, r2, r1
  47 0034 1343     		orrs	r3, r3, r2
  48 0036 2360     		str	r3, [r4]
  49 0038 0122     		movs	r2, #1
  50 003a 0023     		movs	r3, #0
  51 003c 4363     		str	r3, [r0, #52]
  52 003e 80F82120 		strb	r2, [r0, #33]
  53 0042 1846     		mov	r0, r3
  54 0044 10BD     		pop	{r4, pc}
  55              	.L4:
  56 0046 0120     		movs	r0, #1
  57 0048 10BD     		pop	{r4, pc}
  59              		.section	.text.HAL_DMA_DeInit,"ax",%progbits
ARM GAS  /tmp/cc9ztnS9.s 			page 2


  60              		.align	1
  61              		.global	HAL_DMA_DeInit
  62              		.thumb
  63              		.thumb_func
  65              	HAL_DMA_DeInit:
  66              		@ args = 0, pretend = 0, frame = 0
  67              		@ frame_needed = 0, uses_anonymous_args = 0
  68 0000 10B5     		push	{r4, lr}
  69 0002 0028     		cmp	r0, #0
  70 0004 00F08480 		beq	.L12
  71 0008 90F82130 		ldrb	r3, [r0, #33]	@ zero_extendqisi2
  72 000c 022B     		cmp	r3, #2
  73 000e 7FD0     		beq	.L12
  74 0010 0368     		ldr	r3, [r0]
  75 0012 4049     		ldr	r1, .L31
  76 0014 1A68     		ldr	r2, [r3]
  77 0016 8B42     		cmp	r3, r1
  78 0018 22F00102 		bic	r2, r2, #1
  79 001c 1A60     		str	r2, [r3]
  80 001e 4FF00002 		mov	r2, #0
  81 0022 1A60     		str	r2, [r3]
  82 0024 5A60     		str	r2, [r3, #4]
  83 0026 9A60     		str	r2, [r3, #8]
  84 0028 DA60     		str	r2, [r3, #12]
  85 002a 13D0     		beq	.L13
  86 002c 3A4A     		ldr	r2, .L31+4
  87 002e 9342     		cmp	r3, r2
  88 0030 12D0     		beq	.L14
  89 0032 1432     		adds	r2, r2, #20
  90 0034 9342     		cmp	r3, r2
  91 0036 11D0     		beq	.L15
  92 0038 1432     		adds	r2, r2, #20
  93 003a 9342     		cmp	r3, r2
  94 003c 11D0     		beq	.L16
  95 003e 1432     		adds	r2, r2, #20
  96 0040 9342     		cmp	r3, r2
  97 0042 11D0     		beq	.L17
  98 0044 1432     		adds	r2, r2, #20
  99 0046 9342     		cmp	r3, r2
 100 0048 0CBF     		ite	eq
 101 004a 4FF40012 		moveq	r2, #2097152
 102 004e 4FF00072 		movne	r2, #33554432
 103 0052 0BE0     		b	.L8
 104              	.L13:
 105 0054 0222     		movs	r2, #2
 106 0056 09E0     		b	.L8
 107              	.L14:
 108 0058 2022     		movs	r2, #32
 109 005a 07E0     		b	.L8
 110              	.L15:
 111 005c 4FF40072 		mov	r2, #512
 112 0060 04E0     		b	.L8
 113              	.L16:
 114 0062 4FF40052 		mov	r2, #8192
 115 0066 01E0     		b	.L8
 116              	.L17:
 117 0068 4FF40032 		mov	r2, #131072
ARM GAS  /tmp/cc9ztnS9.s 			page 3


 118              	.L8:
 119 006c 2B4C     		ldr	r4, .L31+8
 120 006e 8B42     		cmp	r3, r1
 121 0070 6260     		str	r2, [r4, #4]
 122 0072 13D0     		beq	.L19
 123 0074 284A     		ldr	r2, .L31+4
 124 0076 9342     		cmp	r3, r2
 125 0078 12D0     		beq	.L20
 126 007a 1432     		adds	r2, r2, #20
 127 007c 9342     		cmp	r3, r2
 128 007e 11D0     		beq	.L21
 129 0080 1432     		adds	r2, r2, #20
 130 0082 9342     		cmp	r3, r2
 131 0084 11D0     		beq	.L22
 132 0086 1432     		adds	r2, r2, #20
 133 0088 9342     		cmp	r3, r2
 134 008a 11D0     		beq	.L23
 135 008c 1432     		adds	r2, r2, #20
 136 008e 9342     		cmp	r3, r2
 137 0090 0CBF     		ite	eq
 138 0092 4FF40002 		moveq	r2, #8388608
 139 0096 4FF00062 		movne	r2, #134217728
 140 009a 0BE0     		b	.L9
 141              	.L19:
 142 009c 0822     		movs	r2, #8
 143 009e 09E0     		b	.L9
 144              	.L20:
 145 00a0 8022     		movs	r2, #128
 146 00a2 07E0     		b	.L9
 147              	.L21:
 148 00a4 4FF40062 		mov	r2, #2048
 149 00a8 04E0     		b	.L9
 150              	.L22:
 151 00aa 4FF40042 		mov	r2, #32768
 152 00ae 01E0     		b	.L9
 153              	.L23:
 154 00b0 4FF40022 		mov	r2, #524288
 155              	.L9:
 156 00b4 194C     		ldr	r4, .L31+8
 157 00b6 8B42     		cmp	r3, r1
 158 00b8 6260     		str	r2, [r4, #4]
 159 00ba 13D0     		beq	.L25
 160 00bc 164A     		ldr	r2, .L31+4
 161 00be 9342     		cmp	r3, r2
 162 00c0 12D0     		beq	.L26
 163 00c2 1432     		adds	r2, r2, #20
 164 00c4 9342     		cmp	r3, r2
 165 00c6 11D0     		beq	.L27
 166 00c8 1432     		adds	r2, r2, #20
 167 00ca 9342     		cmp	r3, r2
 168 00cc 11D0     		beq	.L28
 169 00ce 1432     		adds	r2, r2, #20
 170 00d0 9342     		cmp	r3, r2
 171 00d2 11D0     		beq	.L29
 172 00d4 1432     		adds	r2, r2, #20
 173 00d6 9342     		cmp	r3, r2
 174 00d8 0CBF     		ite	eq
ARM GAS  /tmp/cc9ztnS9.s 			page 4


 175 00da 4FF48003 		moveq	r3, #4194304
 176 00de 4FF08063 		movne	r3, #67108864
 177 00e2 0BE0     		b	.L10
 178              	.L25:
 179 00e4 0423     		movs	r3, #4
 180 00e6 09E0     		b	.L10
 181              	.L26:
 182 00e8 4023     		movs	r3, #64
 183 00ea 07E0     		b	.L10
 184              	.L27:
 185 00ec 4FF48063 		mov	r3, #1024
 186 00f0 04E0     		b	.L10
 187              	.L28:
 188 00f2 4FF48043 		mov	r3, #16384
 189 00f6 01E0     		b	.L10
 190              	.L29:
 191 00f8 4FF48023 		mov	r3, #262144
 192              	.L10:
 193 00fc 074A     		ldr	r2, .L31+8
 194 00fe 5360     		str	r3, [r2, #4]
 195 0100 0023     		movs	r3, #0
 196 0102 4363     		str	r3, [r0, #52]
 197 0104 80F82130 		strb	r3, [r0, #33]
 198 0108 80F82030 		strb	r3, [r0, #32]
 199 010c 1846     		mov	r0, r3
 200 010e 10BD     		pop	{r4, pc}
 201              	.L12:
 202 0110 0120     		movs	r0, #1
 203 0112 10BD     		pop	{r4, pc}
 204              	.L32:
 205              		.align	2
 206              	.L31:
 207 0114 08000240 		.word	1073872904
 208 0118 1C000240 		.word	1073872924
 209 011c 00000240 		.word	1073872896
 211              		.section	.text.HAL_DMA_Start,"ax",%progbits
 212              		.align	1
 213              		.global	HAL_DMA_Start
 214              		.thumb
 215              		.thumb_func
 217              	HAL_DMA_Start:
 218              		@ args = 0, pretend = 0, frame = 0
 219              		@ frame_needed = 0, uses_anonymous_args = 0
 220 0000 30B5     		push	{r4, r5, lr}
 221 0002 90F82040 		ldrb	r4, [r0, #32]	@ zero_extendqisi2
 222 0006 012C     		cmp	r4, #1
 223 0008 4FF00204 		mov	r4, #2
 224 000c 17D0     		beq	.L37
 225 000e 80F82140 		strb	r4, [r0, #33]
 226 0012 0468     		ldr	r4, [r0]
 227 0014 0125     		movs	r5, #1
 228 0016 80F82050 		strb	r5, [r0, #32]
 229 001a 2568     		ldr	r5, [r4]
 230 001c 25F00105 		bic	r5, r5, #1
 231 0020 2560     		str	r5, [r4]
 232 0022 6360     		str	r3, [r4, #4]
 233 0024 4368     		ldr	r3, [r0, #4]
ARM GAS  /tmp/cc9ztnS9.s 			page 5


 234 0026 0020     		movs	r0, #0
 235 0028 102B     		cmp	r3, #16
 236 002a 0BBF     		itete	eq
 237 002c A260     		streq	r2, [r4, #8]
 238 002e A160     		strne	r1, [r4, #8]
 239 0030 E160     		streq	r1, [r4, #12]
 240 0032 E260     		strne	r2, [r4, #12]
 241 0034 2368     		ldr	r3, [r4]
 242 0036 43F00103 		orr	r3, r3, #1
 243 003a 2360     		str	r3, [r4]
 244 003c 30BD     		pop	{r4, r5, pc}
 245              	.L37:
 246 003e 2046     		mov	r0, r4
 247 0040 30BD     		pop	{r4, r5, pc}
 249              		.section	.text.HAL_DMA_Start_IT,"ax",%progbits
 250              		.align	1
 251              		.global	HAL_DMA_Start_IT
 252              		.thumb
 253              		.thumb_func
 255              	HAL_DMA_Start_IT:
 256              		@ args = 0, pretend = 0, frame = 0
 257              		@ frame_needed = 0, uses_anonymous_args = 0
 258 0000 30B5     		push	{r4, r5, lr}
 259 0002 90F82040 		ldrb	r4, [r0, #32]	@ zero_extendqisi2
 260 0006 012C     		cmp	r4, #1
 261 0008 4FF00204 		mov	r4, #2
 262 000c 23D0     		beq	.L42
 263 000e 80F82140 		strb	r4, [r0, #33]
 264 0012 0468     		ldr	r4, [r0]
 265 0014 0125     		movs	r5, #1
 266 0016 80F82050 		strb	r5, [r0, #32]
 267 001a 2568     		ldr	r5, [r4]
 268 001c 25F00105 		bic	r5, r5, #1
 269 0020 2560     		str	r5, [r4]
 270 0022 6360     		str	r3, [r4, #4]
 271 0024 4368     		ldr	r3, [r0, #4]
 272 0026 0020     		movs	r0, #0
 273 0028 102B     		cmp	r3, #16
 274 002a 0BBF     		itete	eq
 275 002c A260     		streq	r2, [r4, #8]
 276 002e A160     		strne	r1, [r4, #8]
 277 0030 E160     		streq	r1, [r4, #12]
 278 0032 E260     		strne	r2, [r4, #12]
 279 0034 2368     		ldr	r3, [r4]
 280 0036 43F00203 		orr	r3, r3, #2
 281 003a 2360     		str	r3, [r4]
 282 003c 2368     		ldr	r3, [r4]
 283 003e 43F00403 		orr	r3, r3, #4
 284 0042 2360     		str	r3, [r4]
 285 0044 2368     		ldr	r3, [r4]
 286 0046 43F00803 		orr	r3, r3, #8
 287 004a 2360     		str	r3, [r4]
 288 004c 2368     		ldr	r3, [r4]
 289 004e 43F00103 		orr	r3, r3, #1
 290 0052 2360     		str	r3, [r4]
 291 0054 30BD     		pop	{r4, r5, pc}
 292              	.L42:
ARM GAS  /tmp/cc9ztnS9.s 			page 6


 293 0056 2046     		mov	r0, r4
 294 0058 30BD     		pop	{r4, r5, pc}
 296              		.section	.text.HAL_DMA_Abort,"ax",%progbits
 297              		.align	1
 298              		.global	HAL_DMA_Abort
 299              		.thumb
 300              		.thumb_func
 302              	HAL_DMA_Abort:
 303              		@ args = 0, pretend = 0, frame = 0
 304              		@ frame_needed = 0, uses_anonymous_args = 0
 305 0000 0268     		ldr	r2, [r0]
 306 0002 38B5     		push	{r3, r4, r5, lr}
 307 0004 1368     		ldr	r3, [r2]
 308 0006 0446     		mov	r4, r0
 309 0008 23F00103 		bic	r3, r3, #1
 310 000c 1360     		str	r3, [r2]
 311 000e FFF7FEFF 		bl	HAL_GetTick
 312 0012 0546     		mov	r5, r0
 313              	.L44:
 314 0014 2368     		ldr	r3, [r4]
 315 0016 1868     		ldr	r0, [r3]
 316 0018 10F00100 		ands	r0, r0, #1
 317 001c 10D0     		beq	.L48
 318 001e FFF7FEFF 		bl	HAL_GetTick
 319 0022 401B     		subs	r0, r0, r5
 320 0024 B0F57A7F 		cmp	r0, #1000
 321 0028 F4D9     		bls	.L44
 322 002a 636B     		ldr	r3, [r4, #52]
 323 002c 0320     		movs	r0, #3
 324 002e 43F02003 		orr	r3, r3, #32
 325 0032 6363     		str	r3, [r4, #52]
 326 0034 0023     		movs	r3, #0
 327 0036 84F82100 		strb	r0, [r4, #33]
 328 003a 84F82030 		strb	r3, [r4, #32]
 329 003e 38BD     		pop	{r3, r4, r5, pc}
 330              	.L48:
 331 0040 0123     		movs	r3, #1
 332 0042 84F82130 		strb	r3, [r4, #33]
 333 0046 84F82000 		strb	r0, [r4, #32]
 334 004a 38BD     		pop	{r3, r4, r5, pc}
 336              		.section	.text.HAL_DMA_PollForTransfer,"ax",%progbits
 337              		.align	1
 338              		.global	HAL_DMA_PollForTransfer
 339              		.thumb
 340              		.thumb_func
 342              	HAL_DMA_PollForTransfer:
 343              		@ args = 0, pretend = 0, frame = 0
 344              		@ frame_needed = 0, uses_anonymous_args = 0
 345 0000 2DE9F843 		push	{r3, r4, r5, r6, r7, r8, r9, lr}
 346 0004 0546     		mov	r5, r0
 347 0006 9046     		mov	r8, r2
 348 0008 0F46     		mov	r7, r1
 349 000a 0368     		ldr	r3, [r0]
 350 000c 884E     		ldr	r6, .L105
 351 000e A9B9     		cbnz	r1, .L50
 352 0010 B342     		cmp	r3, r6
 353 0012 29D0     		beq	.L65
ARM GAS  /tmp/cc9ztnS9.s 			page 7


 354 0014 874A     		ldr	r2, .L105+4
 355 0016 9342     		cmp	r3, r2
 356 0018 28D0     		beq	.L66
 357 001a 1432     		adds	r2, r2, #20
 358 001c 9342     		cmp	r3, r2
 359 001e 27D0     		beq	.L67
 360 0020 1432     		adds	r2, r2, #20
 361 0022 9342     		cmp	r3, r2
 362 0024 27D0     		beq	.L68
 363 0026 1432     		adds	r2, r2, #20
 364 0028 9342     		cmp	r3, r2
 365 002a 27D0     		beq	.L69
 366 002c 824C     		ldr	r4, .L105+8
 367 002e A342     		cmp	r3, r4
 368 0030 0CBF     		ite	eq
 369 0032 4FF40014 		moveq	r4, #2097152
 370 0036 4FF00074 		movne	r4, #33554432
 371 003a 2EE0     		b	.L51
 372              	.L50:
 373 003c B342     		cmp	r3, r6
 374 003e 20D0     		beq	.L71
 375 0040 7C4A     		ldr	r2, .L105+4
 376 0042 9342     		cmp	r3, r2
 377 0044 1FD0     		beq	.L72
 378 0046 1432     		adds	r2, r2, #20
 379 0048 9342     		cmp	r3, r2
 380 004a 1ED0     		beq	.L73
 381 004c 1432     		adds	r2, r2, #20
 382 004e 9342     		cmp	r3, r2
 383 0050 1ED0     		beq	.L74
 384 0052 1432     		adds	r2, r2, #20
 385 0054 9342     		cmp	r3, r2
 386 0056 1ED0     		beq	.L75
 387 0058 774C     		ldr	r4, .L105+8
 388 005a A342     		cmp	r3, r4
 389 005c 0CBF     		ite	eq
 390 005e 4FF48004 		moveq	r4, #4194304
 391 0062 4FF08064 		movne	r4, #67108864
 392 0066 18E0     		b	.L51
 393              	.L65:
 394 0068 0224     		movs	r4, #2
 395 006a 16E0     		b	.L51
 396              	.L66:
 397 006c 2024     		movs	r4, #32
 398 006e 14E0     		b	.L51
 399              	.L67:
 400 0070 4FF40074 		mov	r4, #512
 401 0074 11E0     		b	.L51
 402              	.L68:
 403 0076 4FF40054 		mov	r4, #8192
 404 007a 0EE0     		b	.L51
 405              	.L69:
 406 007c 4FF40034 		mov	r4, #131072
 407 0080 0BE0     		b	.L51
 408              	.L71:
 409 0082 0424     		movs	r4, #4
 410 0084 09E0     		b	.L51
ARM GAS  /tmp/cc9ztnS9.s 			page 8


 411              	.L72:
 412 0086 4024     		movs	r4, #64
 413 0088 07E0     		b	.L51
 414              	.L73:
 415 008a 4FF48064 		mov	r4, #1024
 416 008e 04E0     		b	.L51
 417              	.L74:
 418 0090 4FF48044 		mov	r4, #16384
 419 0094 01E0     		b	.L51
 420              	.L75:
 421 0096 4FF48024 		mov	r4, #262144
 422              	.L51:
 423 009a FFF7FEFF 		bl	HAL_GetTick
 424 009e 8146     		mov	r9, r0
 425              	.L57:
 426 00a0 664A     		ldr	r2, .L105+12
 427 00a2 1368     		ldr	r3, [r2]
 428 00a4 1C42     		tst	r4, r3
 429 00a6 2B68     		ldr	r3, [r5]
 430 00a8 6ED1     		bne	.L104
 431 00aa B342     		cmp	r3, r6
 432 00ac 1268     		ldr	r2, [r2]
 433 00ae 13D0     		beq	.L77
 434 00b0 6049     		ldr	r1, .L105+4
 435 00b2 8B42     		cmp	r3, r1
 436 00b4 12D0     		beq	.L78
 437 00b6 1431     		adds	r1, r1, #20
 438 00b8 8B42     		cmp	r3, r1
 439 00ba 11D0     		beq	.L79
 440 00bc 1431     		adds	r1, r1, #20
 441 00be 8B42     		cmp	r3, r1
 442 00c0 11D0     		beq	.L80
 443 00c2 1431     		adds	r1, r1, #20
 444 00c4 8B42     		cmp	r3, r1
 445 00c6 11D0     		beq	.L81
 446 00c8 1431     		adds	r1, r1, #20
 447 00ca 8B42     		cmp	r3, r1
 448 00cc 0CBF     		ite	eq
 449 00ce 4FF40001 		moveq	r1, #8388608
 450 00d2 4FF00061 		movne	r1, #134217728
 451 00d6 0BE0     		b	.L53
 452              	.L77:
 453 00d8 0821     		movs	r1, #8
 454 00da 09E0     		b	.L53
 455              	.L78:
 456 00dc 8021     		movs	r1, #128
 457 00de 07E0     		b	.L53
 458              	.L79:
 459 00e0 4FF40061 		mov	r1, #2048
 460 00e4 04E0     		b	.L53
 461              	.L80:
 462 00e6 4FF40041 		mov	r1, #32768
 463 00ea 01E0     		b	.L53
 464              	.L81:
 465 00ec 4FF40021 		mov	r1, #524288
 466              	.L53:
 467 00f0 1142     		tst	r1, r2
ARM GAS  /tmp/cc9ztnS9.s 			page 9


 468 00f2 30D0     		beq	.L54
 469 00f4 B342     		cmp	r3, r6
 470 00f6 13D0     		beq	.L83
 471 00f8 4E4A     		ldr	r2, .L105+4
 472 00fa 9342     		cmp	r3, r2
 473 00fc 12D0     		beq	.L84
 474 00fe 1432     		adds	r2, r2, #20
 475 0100 9342     		cmp	r3, r2
 476 0102 11D0     		beq	.L85
 477 0104 1432     		adds	r2, r2, #20
 478 0106 9342     		cmp	r3, r2
 479 0108 11D0     		beq	.L86
 480 010a 1432     		adds	r2, r2, #20
 481 010c 9342     		cmp	r3, r2
 482 010e 11D0     		beq	.L87
 483 0110 1432     		adds	r2, r2, #20
 484 0112 9342     		cmp	r3, r2
 485 0114 0CBF     		ite	eq
 486 0116 4FF40003 		moveq	r3, #8388608
 487 011a 4FF00063 		movne	r3, #134217728
 488 011e 0BE0     		b	.L55
 489              	.L83:
 490 0120 0823     		movs	r3, #8
 491 0122 09E0     		b	.L55
 492              	.L84:
 493 0124 8023     		movs	r3, #128
 494 0126 07E0     		b	.L55
 495              	.L85:
 496 0128 4FF40063 		mov	r3, #2048
 497 012c 04E0     		b	.L55
 498              	.L86:
 499 012e 4FF40043 		mov	r3, #32768
 500 0132 01E0     		b	.L55
 501              	.L87:
 502 0134 4FF40023 		mov	r3, #524288
 503              	.L55:
 504 0138 404A     		ldr	r2, .L105+12
 505 013a 0120     		movs	r0, #1
 506 013c 5360     		str	r3, [r2, #4]
 507 013e 6B6B     		ldr	r3, [r5, #52]
 508 0140 43F00103 		orr	r3, r3, #1
 509 0144 6B63     		str	r3, [r5, #52]
 510 0146 0423     		movs	r3, #4
 511 0148 85F82130 		strb	r3, [r5, #33]
 512 014c 0023     		movs	r3, #0
 513 014e 85F82030 		strb	r3, [r5, #32]
 514 0152 BDE8F883 		pop	{r3, r4, r5, r6, r7, r8, r9, pc}
 515              	.L54:
 516 0156 B8F1FF3F 		cmp	r8, #-1
 517 015a A1D0     		beq	.L57
 518 015c B8F1000F 		cmp	r8, #0
 519 0160 0BD1     		bne	.L58
 520              	.L59:
 521 0162 6B6B     		ldr	r3, [r5, #52]
 522 0164 0320     		movs	r0, #3
 523 0166 43F02003 		orr	r3, r3, #32
 524 016a 6B63     		str	r3, [r5, #52]
ARM GAS  /tmp/cc9ztnS9.s 			page 10


 525 016c 0023     		movs	r3, #0
 526 016e 85F82100 		strb	r0, [r5, #33]
 527 0172 85F82030 		strb	r3, [r5, #32]
 528 0176 BDE8F883 		pop	{r3, r4, r5, r6, r7, r8, r9, pc}
 529              	.L58:
 530 017a FFF7FEFF 		bl	HAL_GetTick
 531 017e C9EB0000 		rsb	r0, r9, r0
 532 0182 4045     		cmp	r0, r8
 533 0184 8CD9     		bls	.L57
 534 0186 ECE7     		b	.L59
 535              	.L104:
 536 0188 2FBB     		cbnz	r7, .L61
 537 018a B342     		cmp	r3, r6
 538 018c 13D0     		beq	.L89
 539 018e 1C32     		adds	r2, r2, #28
 540 0190 9342     		cmp	r3, r2
 541 0192 12D0     		beq	.L90
 542 0194 1432     		adds	r2, r2, #20
 543 0196 9342     		cmp	r3, r2
 544 0198 11D0     		beq	.L91
 545 019a 1432     		adds	r2, r2, #20
 546 019c 9342     		cmp	r3, r2
 547 019e 11D0     		beq	.L92
 548 01a0 1432     		adds	r2, r2, #20
 549 01a2 9342     		cmp	r3, r2
 550 01a4 11D0     		beq	.L93
 551 01a6 1432     		adds	r2, r2, #20
 552 01a8 9342     		cmp	r3, r2
 553 01aa 0CBF     		ite	eq
 554 01ac 4FF40013 		moveq	r3, #2097152
 555 01b0 4FF00073 		movne	r3, #33554432
 556 01b4 0BE0     		b	.L62
 557              	.L89:
 558 01b6 0223     		movs	r3, #2
 559 01b8 09E0     		b	.L62
 560              	.L90:
 561 01ba 2023     		movs	r3, #32
 562 01bc 07E0     		b	.L62
 563              	.L91:
 564 01be 4FF40073 		mov	r3, #512
 565 01c2 04E0     		b	.L62
 566              	.L92:
 567 01c4 4FF40053 		mov	r3, #8192
 568 01c8 01E0     		b	.L62
 569              	.L93:
 570 01ca 4FF40033 		mov	r3, #131072
 571              	.L62:
 572 01ce 1B4A     		ldr	r2, .L105+12
 573 01d0 5360     		str	r3, [r2, #4]
 574 01d2 0123     		movs	r3, #1
 575 01d4 24E0     		b	.L103
 576              	.L61:
 577 01d6 B342     		cmp	r3, r6
 578 01d8 13D0     		beq	.L95
 579 01da 164A     		ldr	r2, .L105+4
 580 01dc 9342     		cmp	r3, r2
 581 01de 12D0     		beq	.L96
ARM GAS  /tmp/cc9ztnS9.s 			page 11


 582 01e0 1432     		adds	r2, r2, #20
 583 01e2 9342     		cmp	r3, r2
 584 01e4 11D0     		beq	.L97
 585 01e6 1432     		adds	r2, r2, #20
 586 01e8 9342     		cmp	r3, r2
 587 01ea 11D0     		beq	.L98
 588 01ec 1432     		adds	r2, r2, #20
 589 01ee 9342     		cmp	r3, r2
 590 01f0 11D0     		beq	.L99
 591 01f2 1432     		adds	r2, r2, #20
 592 01f4 9342     		cmp	r3, r2
 593 01f6 0CBF     		ite	eq
 594 01f8 4FF48003 		moveq	r3, #4194304
 595 01fc 4FF08063 		movne	r3, #67108864
 596 0200 0BE0     		b	.L64
 597              	.L95:
 598 0202 0423     		movs	r3, #4
 599 0204 09E0     		b	.L64
 600              	.L96:
 601 0206 4023     		movs	r3, #64
 602 0208 07E0     		b	.L64
 603              	.L97:
 604 020a 4FF48063 		mov	r3, #1024
 605 020e 04E0     		b	.L64
 606              	.L98:
 607 0210 4FF48043 		mov	r3, #16384
 608 0214 01E0     		b	.L64
 609              	.L99:
 610 0216 4FF48023 		mov	r3, #262144
 611              	.L64:
 612 021a 084A     		ldr	r2, .L105+12
 613 021c 5360     		str	r3, [r2, #4]
 614 021e 1123     		movs	r3, #17
 615              	.L103:
 616 0220 0020     		movs	r0, #0
 617 0222 85F82130 		strb	r3, [r5, #33]
 618 0226 85F82000 		strb	r0, [r5, #32]
 619 022a BDE8F883 		pop	{r3, r4, r5, r6, r7, r8, r9, pc}
 620              	.L106:
 621 022e 00BF     		.align	2
 622              	.L105:
 623 0230 08000240 		.word	1073872904
 624 0234 1C000240 		.word	1073872924
 625 0238 6C000240 		.word	1073873004
 626 023c 00000240 		.word	1073872896
 628              		.section	.text.HAL_DMA_IRQHandler,"ax",%progbits
 629              		.align	1
 630              		.global	HAL_DMA_IRQHandler
 631              		.thumb
 632              		.thumb_func
 634              	HAL_DMA_IRQHandler:
 635              		@ args = 0, pretend = 0, frame = 0
 636              		@ frame_needed = 0, uses_anonymous_args = 0
 637 0000 914B     		ldr	r3, .L179
 638 0002 70B5     		push	{r4, r5, r6, lr}
 639 0004 1968     		ldr	r1, [r3]
 640 0006 914D     		ldr	r5, .L179+4
ARM GAS  /tmp/cc9ztnS9.s 			page 12


 641 0008 0368     		ldr	r3, [r0]
 642 000a 0446     		mov	r4, r0
 643 000c AB42     		cmp	r3, r5
 644 000e 13D0     		beq	.L125
 645 0010 8F4A     		ldr	r2, .L179+8
 646 0012 9342     		cmp	r3, r2
 647 0014 12D0     		beq	.L126
 648 0016 1432     		adds	r2, r2, #20
 649 0018 9342     		cmp	r3, r2
 650 001a 11D0     		beq	.L127
 651 001c 1432     		adds	r2, r2, #20
 652 001e 9342     		cmp	r3, r2
 653 0020 11D0     		beq	.L128
 654 0022 1432     		adds	r2, r2, #20
 655 0024 9342     		cmp	r3, r2
 656 0026 11D0     		beq	.L129
 657 0028 1432     		adds	r2, r2, #20
 658 002a 9342     		cmp	r3, r2
 659 002c 0CBF     		ite	eq
 660 002e 4FF40002 		moveq	r2, #8388608
 661 0032 4FF00062 		movne	r2, #134217728
 662 0036 0BE0     		b	.L108
 663              	.L125:
 664 0038 0822     		movs	r2, #8
 665 003a 09E0     		b	.L108
 666              	.L126:
 667 003c 8022     		movs	r2, #128
 668 003e 07E0     		b	.L108
 669              	.L127:
 670 0040 4FF40062 		mov	r2, #2048
 671 0044 04E0     		b	.L108
 672              	.L128:
 673 0046 4FF40042 		mov	r2, #32768
 674 004a 01E0     		b	.L108
 675              	.L129:
 676 004c 4FF40022 		mov	r2, #524288
 677              	.L108:
 678 0050 0A42     		tst	r2, r1
 679 0052 38D0     		beq	.L110
 680 0054 1A68     		ldr	r2, [r3]
 681 0056 1207     		lsls	r2, r2, #28
 682 0058 35D5     		bpl	.L110
 683 005a 1A68     		ldr	r2, [r3]
 684 005c AB42     		cmp	r3, r5
 685 005e 22F00802 		bic	r2, r2, #8
 686 0062 1A60     		str	r2, [r3]
 687 0064 13D0     		beq	.L131
 688 0066 7A4A     		ldr	r2, .L179+8
 689 0068 9342     		cmp	r3, r2
 690 006a 12D0     		beq	.L132
 691 006c 1432     		adds	r2, r2, #20
 692 006e 9342     		cmp	r3, r2
 693 0070 11D0     		beq	.L133
 694 0072 1432     		adds	r2, r2, #20
 695 0074 9342     		cmp	r3, r2
 696 0076 11D0     		beq	.L134
 697 0078 1432     		adds	r2, r2, #20
ARM GAS  /tmp/cc9ztnS9.s 			page 13


 698 007a 9342     		cmp	r3, r2
 699 007c 11D0     		beq	.L135
 700 007e 1432     		adds	r2, r2, #20
 701 0080 9342     		cmp	r3, r2
 702 0082 0CBF     		ite	eq
 703 0084 4FF40003 		moveq	r3, #8388608
 704 0088 4FF00063 		movne	r3, #134217728
 705 008c 0BE0     		b	.L112
 706              	.L131:
 707 008e 0823     		movs	r3, #8
 708 0090 09E0     		b	.L112
 709              	.L132:
 710 0092 8023     		movs	r3, #128
 711 0094 07E0     		b	.L112
 712              	.L133:
 713 0096 4FF40063 		mov	r3, #2048
 714 009a 04E0     		b	.L112
 715              	.L134:
 716 009c 4FF40043 		mov	r3, #32768
 717 00a0 01E0     		b	.L112
 718              	.L135:
 719 00a2 4FF40023 		mov	r3, #524288
 720              	.L112:
 721 00a6 684A     		ldr	r2, .L179
 722 00a8 5360     		str	r3, [r2, #4]
 723 00aa 636B     		ldr	r3, [r4, #52]
 724 00ac 43F00103 		orr	r3, r3, #1
 725 00b0 6363     		str	r3, [r4, #52]
 726 00b2 0423     		movs	r3, #4
 727 00b4 84F82130 		strb	r3, [r4, #33]
 728 00b8 0023     		movs	r3, #0
 729 00ba 84F82030 		strb	r3, [r4, #32]
 730 00be 236B     		ldr	r3, [r4, #48]
 731 00c0 0BB1     		cbz	r3, .L110
 732 00c2 2046     		mov	r0, r4
 733 00c4 9847     		blx	r3
 734              	.L110:
 735 00c6 604B     		ldr	r3, .L179
 736 00c8 1968     		ldr	r1, [r3]
 737 00ca 2368     		ldr	r3, [r4]
 738 00cc AB42     		cmp	r3, r5
 739 00ce 13D0     		beq	.L137
 740 00d0 5F4A     		ldr	r2, .L179+8
 741 00d2 9342     		cmp	r3, r2
 742 00d4 12D0     		beq	.L138
 743 00d6 1432     		adds	r2, r2, #20
 744 00d8 9342     		cmp	r3, r2
 745 00da 11D0     		beq	.L139
 746 00dc 1432     		adds	r2, r2, #20
 747 00de 9342     		cmp	r3, r2
 748 00e0 11D0     		beq	.L140
 749 00e2 1432     		adds	r2, r2, #20
 750 00e4 9342     		cmp	r3, r2
 751 00e6 11D0     		beq	.L141
 752 00e8 1432     		adds	r2, r2, #20
 753 00ea 9342     		cmp	r3, r2
 754 00ec 0CBF     		ite	eq
ARM GAS  /tmp/cc9ztnS9.s 			page 14


 755 00ee 4FF48002 		moveq	r2, #4194304
 756 00f2 4FF08062 		movne	r2, #67108864
 757 00f6 0BE0     		b	.L113
 758              	.L137:
 759 00f8 0422     		movs	r2, #4
 760 00fa 09E0     		b	.L113
 761              	.L138:
 762 00fc 4022     		movs	r2, #64
 763 00fe 07E0     		b	.L113
 764              	.L139:
 765 0100 4FF48062 		mov	r2, #1024
 766 0104 04E0     		b	.L113
 767              	.L140:
 768 0106 4FF48042 		mov	r2, #16384
 769 010a 01E0     		b	.L113
 770              	.L141:
 771 010c 4FF48022 		mov	r2, #262144
 772              	.L113:
 773 0110 0A42     		tst	r2, r1
 774 0112 34D0     		beq	.L115
 775 0114 1A68     		ldr	r2, [r3]
 776 0116 5607     		lsls	r6, r2, #29
 777 0118 31D5     		bpl	.L115
 778 011a 1A68     		ldr	r2, [r3]
 779 011c 9006     		lsls	r0, r2, #26
 780 011e 5EBF     		ittt	pl
 781 0120 1A68     		ldrpl	r2, [r3]
 782 0122 22F00402 		bicpl	r2, r2, #4
 783 0126 1A60     		strpl	r2, [r3]
 784 0128 AB42     		cmp	r3, r5
 785 012a 13D0     		beq	.L143
 786 012c 484A     		ldr	r2, .L179+8
 787 012e 9342     		cmp	r3, r2
 788 0130 12D0     		beq	.L144
 789 0132 1432     		adds	r2, r2, #20
 790 0134 9342     		cmp	r3, r2
 791 0136 11D0     		beq	.L145
 792 0138 1432     		adds	r2, r2, #20
 793 013a 9342     		cmp	r3, r2
 794 013c 11D0     		beq	.L146
 795 013e 1432     		adds	r2, r2, #20
 796 0140 9342     		cmp	r3, r2
 797 0142 11D0     		beq	.L147
 798 0144 1432     		adds	r2, r2, #20
 799 0146 9342     		cmp	r3, r2
 800 0148 0CBF     		ite	eq
 801 014a 4FF48003 		moveq	r3, #4194304
 802 014e 4FF08063 		movne	r3, #67108864
 803 0152 0BE0     		b	.L118
 804              	.L143:
 805 0154 0423     		movs	r3, #4
 806 0156 09E0     		b	.L118
 807              	.L144:
 808 0158 4023     		movs	r3, #64
 809 015a 07E0     		b	.L118
 810              	.L145:
 811 015c 4FF48063 		mov	r3, #1024
ARM GAS  /tmp/cc9ztnS9.s 			page 15


 812 0160 04E0     		b	.L118
 813              	.L146:
 814 0162 4FF48043 		mov	r3, #16384
 815 0166 01E0     		b	.L118
 816              	.L147:
 817 0168 4FF48023 		mov	r3, #262144
 818              	.L118:
 819 016c 364A     		ldr	r2, .L179
 820 016e 5360     		str	r3, [r2, #4]
 821 0170 1123     		movs	r3, #17
 822 0172 84F82130 		strb	r3, [r4, #33]
 823 0176 E36A     		ldr	r3, [r4, #44]
 824 0178 0BB1     		cbz	r3, .L115
 825 017a 2046     		mov	r0, r4
 826 017c 9847     		blx	r3
 827              	.L115:
 828 017e 324B     		ldr	r3, .L179
 829 0180 1968     		ldr	r1, [r3]
 830 0182 2368     		ldr	r3, [r4]
 831 0184 AB42     		cmp	r3, r5
 832 0186 13D0     		beq	.L149
 833 0188 314A     		ldr	r2, .L179+8
 834 018a 9342     		cmp	r3, r2
 835 018c 12D0     		beq	.L150
 836 018e 1432     		adds	r2, r2, #20
 837 0190 9342     		cmp	r3, r2
 838 0192 11D0     		beq	.L151
 839 0194 1432     		adds	r2, r2, #20
 840 0196 9342     		cmp	r3, r2
 841 0198 11D0     		beq	.L152
 842 019a 1432     		adds	r2, r2, #20
 843 019c 9342     		cmp	r3, r2
 844 019e 11D0     		beq	.L153
 845 01a0 1432     		adds	r2, r2, #20
 846 01a2 9342     		cmp	r3, r2
 847 01a4 0CBF     		ite	eq
 848 01a6 4FF40012 		moveq	r2, #2097152
 849 01aa 4FF00072 		movne	r2, #33554432
 850 01ae 0BE0     		b	.L119
 851              	.L149:
 852 01b0 0222     		movs	r2, #2
 853 01b2 09E0     		b	.L119
 854              	.L150:
 855 01b4 2022     		movs	r2, #32
 856 01b6 07E0     		b	.L119
 857              	.L151:
 858 01b8 4FF40072 		mov	r2, #512
 859 01bc 04E0     		b	.L119
 860              	.L152:
 861 01be 4FF40052 		mov	r2, #8192
 862 01c2 01E0     		b	.L119
 863              	.L153:
 864 01c4 4FF40032 		mov	r2, #131072
 865              	.L119:
 866 01c8 0A42     		tst	r2, r1
 867 01ca 3BD0     		beq	.L107
 868 01cc 1A68     		ldr	r2, [r3]
ARM GAS  /tmp/cc9ztnS9.s 			page 16


 869 01ce 9107     		lsls	r1, r2, #30
 870 01d0 38D5     		bpl	.L107
 871 01d2 1A68     		ldr	r2, [r3]
 872 01d4 9206     		lsls	r2, r2, #26
 873 01d6 5EBF     		ittt	pl
 874 01d8 1A68     		ldrpl	r2, [r3]
 875 01da 22F00202 		bicpl	r2, r2, #2
 876 01de 1A60     		strpl	r2, [r3]
 877 01e0 AB42     		cmp	r3, r5
 878 01e2 13D0     		beq	.L155
 879 01e4 1A4A     		ldr	r2, .L179+8
 880 01e6 9342     		cmp	r3, r2
 881 01e8 12D0     		beq	.L156
 882 01ea 1432     		adds	r2, r2, #20
 883 01ec 9342     		cmp	r3, r2
 884 01ee 11D0     		beq	.L157
 885 01f0 1432     		adds	r2, r2, #20
 886 01f2 9342     		cmp	r3, r2
 887 01f4 11D0     		beq	.L158
 888 01f6 1432     		adds	r2, r2, #20
 889 01f8 9342     		cmp	r3, r2
 890 01fa 11D0     		beq	.L159
 891 01fc 1432     		adds	r2, r2, #20
 892 01fe 9342     		cmp	r3, r2
 893 0200 0CBF     		ite	eq
 894 0202 4FF40013 		moveq	r3, #2097152
 895 0206 4FF00073 		movne	r3, #33554432
 896 020a 0BE0     		b	.L124
 897              	.L155:
 898 020c 0223     		movs	r3, #2
 899 020e 09E0     		b	.L124
 900              	.L156:
 901 0210 2023     		movs	r3, #32
 902 0212 07E0     		b	.L124
 903              	.L157:
 904 0214 4FF40073 		mov	r3, #512
 905 0218 04E0     		b	.L124
 906              	.L158:
 907 021a 4FF40053 		mov	r3, #8192
 908 021e 01E0     		b	.L124
 909              	.L159:
 910 0220 4FF40033 		mov	r3, #131072
 911              	.L124:
 912 0224 084A     		ldr	r2, .L179
 913 0226 5360     		str	r3, [r2, #4]
 914 0228 636B     		ldr	r3, [r4, #52]
 915 022a 6363     		str	r3, [r4, #52]
 916 022c 0123     		movs	r3, #1
 917 022e 84F82130 		strb	r3, [r4, #33]
 918 0232 0023     		movs	r3, #0
 919 0234 84F82030 		strb	r3, [r4, #32]
 920 0238 A36A     		ldr	r3, [r4, #40]
 921 023a 1BB1     		cbz	r3, .L107
 922 023c 2046     		mov	r0, r4
 923 023e BDE87040 		pop	{r4, r5, r6, lr}
 924 0242 1847     		bx	r3	@ indirect register sibling call
 925              	.L107:
ARM GAS  /tmp/cc9ztnS9.s 			page 17


 926 0244 70BD     		pop	{r4, r5, r6, pc}
 927              	.L180:
 928 0246 00BF     		.align	2
 929              	.L179:
 930 0248 00000240 		.word	1073872896
 931 024c 08000240 		.word	1073872904
 932 0250 1C000240 		.word	1073872924
 934              		.section	.text.HAL_DMA_GetState,"ax",%progbits
 935              		.align	1
 936              		.global	HAL_DMA_GetState
 937              		.thumb
 938              		.thumb_func
 940              	HAL_DMA_GetState:
 941              		@ args = 0, pretend = 0, frame = 0
 942              		@ frame_needed = 0, uses_anonymous_args = 0
 943              		@ link register save eliminated.
 944 0000 90F82100 		ldrb	r0, [r0, #33]	@ zero_extendqisi2
 945 0004 7047     		bx	lr
 947              		.section	.text.HAL_DMA_GetError,"ax",%progbits
 948              		.align	1
 949              		.global	HAL_DMA_GetError
 950              		.thumb
 951              		.thumb_func
 953              	HAL_DMA_GetError:
 954              		@ args = 0, pretend = 0, frame = 0
 955              		@ frame_needed = 0, uses_anonymous_args = 0
 956              		@ link register save eliminated.
 957 0000 406B     		ldr	r0, [r0, #52]
 958 0002 7047     		bx	lr
 960              		.ident	"GCC: (4.9.2-10+14~bpo8+1) 4.9.2"
ARM GAS  /tmp/cc9ztnS9.s 			page 18

