ARM GAS  /tmp/ccXsuKf4.s 			page 1


   1              		.syntax unified
   2              		.cpu cortex-m3
   3              		.fpu softvfp
   4              		.eabi_attribute 20, 1
   5              		.eabi_attribute 21, 1
   6              		.eabi_attribute 23, 3
   7              		.eabi_attribute 24, 1
   8              		.eabi_attribute 25, 1
   9              		.eabi_attribute 26, 1
  10              		.eabi_attribute 30, 4
  11              		.eabi_attribute 34, 1
  12              		.eabi_attribute 18, 4
  13              		.thumb
  14              		.file	"stm32f1xx_hal.c"
  15              		.section	.text.HAL_MspInit,"ax",%progbits
  16              		.align	1
  17              		.weak	HAL_MspInit
  18              		.thumb
  19              		.thumb_func
  21              	HAL_MspInit:
  22              		@ args = 0, pretend = 0, frame = 0
  23              		@ frame_needed = 0, uses_anonymous_args = 0
  24              		@ link register save eliminated.
  25 0000 7047     		bx	lr
  27              		.section	.text.HAL_MspDeInit,"ax",%progbits
  28              		.align	1
  29              		.weak	HAL_MspDeInit
  30              		.thumb
  31              		.thumb_func
  33              	HAL_MspDeInit:
  34              		@ args = 0, pretend = 0, frame = 0
  35              		@ frame_needed = 0, uses_anonymous_args = 0
  36              		@ link register save eliminated.
  37 0000 7047     		bx	lr
  39              		.section	.text.HAL_DeInit,"ax",%progbits
  40              		.align	1
  41              		.global	HAL_DeInit
  42              		.thumb
  43              		.thumb_func
  45              	HAL_DeInit:
  46              		@ args = 0, pretend = 0, frame = 0
  47              		@ frame_needed = 0, uses_anonymous_args = 0
  48 0000 10B5     		push	{r4, lr}
  49 0002 064B     		ldr	r3, .L4
  50 0004 4FF0FF32 		mov	r2, #-1
  51 0008 0024     		movs	r4, #0
  52 000a DA60     		str	r2, [r3, #12]
  53 000c 1C61     		str	r4, [r3, #16]
  54 000e DA60     		str	r2, [r3, #12]
  55 0010 DC60     		str	r4, [r3, #12]
  56 0012 FFF7FEFF 		bl	HAL_MspDeInit
  57 0016 2046     		mov	r0, r4
  58 0018 10BD     		pop	{r4, pc}
  59              	.L5:
  60 001a 00BF     		.align	2
  61              	.L4:
  62 001c 00100240 		.word	1073876992
ARM GAS  /tmp/ccXsuKf4.s 			page 2


  64              		.section	.text.HAL_InitTick,"ax",%progbits
  65              		.align	1
  66              		.weak	HAL_InitTick
  67              		.thumb
  68              		.thumb_func
  70              	HAL_InitTick:
  71              		@ args = 0, pretend = 0, frame = 0
  72              		@ frame_needed = 0, uses_anonymous_args = 0
  73 0000 10B5     		push	{r4, lr}
  74 0002 0446     		mov	r4, r0
  75 0004 FFF7FEFF 		bl	HAL_RCC_GetHCLKFreq
  76 0008 4FF47A73 		mov	r3, #1000
  77 000c B0FBF3F0 		udiv	r0, r0, r3
  78 0010 FFF7FEFF 		bl	HAL_SYSTICK_Config
  79 0014 4FF0FF30 		mov	r0, #-1
  80 0018 2146     		mov	r1, r4
  81 001a 0022     		movs	r2, #0
  82 001c FFF7FEFF 		bl	HAL_NVIC_SetPriority
  83 0020 0020     		movs	r0, #0
  84 0022 10BD     		pop	{r4, pc}
  86              		.section	.text.HAL_Init,"ax",%progbits
  87              		.align	1
  88              		.global	HAL_Init
  89              		.thumb
  90              		.thumb_func
  92              	HAL_Init:
  93              		@ args = 0, pretend = 0, frame = 0
  94              		@ frame_needed = 0, uses_anonymous_args = 0
  95 0000 08B5     		push	{r3, lr}
  96 0002 0320     		movs	r0, #3
  97 0004 FFF7FEFF 		bl	HAL_NVIC_SetPriorityGrouping
  98 0008 0020     		movs	r0, #0
  99 000a FFF7FEFF 		bl	HAL_InitTick
 100 000e FFF7FEFF 		bl	HAL_MspInit
 101 0012 0020     		movs	r0, #0
 102 0014 08BD     		pop	{r3, pc}
 104              		.section	.text.HAL_IncTick,"ax",%progbits
 105              		.align	1
 106              		.weak	HAL_IncTick
 107              		.thumb
 108              		.thumb_func
 110              	HAL_IncTick:
 111              		@ args = 0, pretend = 0, frame = 0
 112              		@ frame_needed = 0, uses_anonymous_args = 0
 113              		@ link register save eliminated.
 114 0000 024A     		ldr	r2, .L9
 115 0002 1368     		ldr	r3, [r2]
 116 0004 0133     		adds	r3, r3, #1
 117 0006 1360     		str	r3, [r2]
 118 0008 7047     		bx	lr
 119              	.L10:
 120 000a 00BF     		.align	2
 121              	.L9:
 122 000c 00000000 		.word	.LANCHOR0
 124              		.section	.text.HAL_GetTick,"ax",%progbits
 125              		.align	1
 126              		.weak	HAL_GetTick
ARM GAS  /tmp/ccXsuKf4.s 			page 3


 127              		.thumb
 128              		.thumb_func
 130              	HAL_GetTick:
 131              		@ args = 0, pretend = 0, frame = 0
 132              		@ frame_needed = 0, uses_anonymous_args = 0
 133              		@ link register save eliminated.
 134 0000 014B     		ldr	r3, .L12
 135 0002 1868     		ldr	r0, [r3]
 136 0004 7047     		bx	lr
 137              	.L13:
 138 0006 00BF     		.align	2
 139              	.L12:
 140 0008 00000000 		.word	.LANCHOR0
 142              		.section	.text.HAL_Delay,"ax",%progbits
 143              		.align	1
 144              		.weak	HAL_Delay
 145              		.thumb
 146              		.thumb_func
 148              	HAL_Delay:
 149              		@ args = 0, pretend = 0, frame = 8
 150              		@ frame_needed = 0, uses_anonymous_args = 0
 151 0000 13B5     		push	{r0, r1, r4, lr}
 152 0002 0190     		str	r0, [sp, #4]
 153 0004 FFF7FEFF 		bl	HAL_GetTick
 154 0008 0446     		mov	r4, r0
 155              	.L15:
 156 000a FFF7FEFF 		bl	HAL_GetTick
 157 000e 019B     		ldr	r3, [sp, #4]
 158 0010 001B     		subs	r0, r0, r4
 159 0012 9842     		cmp	r0, r3
 160 0014 F9D3     		bcc	.L15
 161 0016 02B0     		add	sp, sp, #8
 162              		@ sp needed
 163 0018 10BD     		pop	{r4, pc}
 165              		.section	.text.HAL_SuspendTick,"ax",%progbits
 166              		.align	1
 167              		.weak	HAL_SuspendTick
 168              		.thumb
 169              		.thumb_func
 171              	HAL_SuspendTick:
 172              		@ args = 0, pretend = 0, frame = 0
 173              		@ frame_needed = 0, uses_anonymous_args = 0
 174              		@ link register save eliminated.
 175 0000 024A     		ldr	r2, .L19
 176 0002 1368     		ldr	r3, [r2]
 177 0004 23F00203 		bic	r3, r3, #2
 178 0008 1360     		str	r3, [r2]
 179 000a 7047     		bx	lr
 180              	.L20:
 181              		.align	2
 182              	.L19:
 183 000c 10E000E0 		.word	-536813552
 185              		.section	.text.HAL_ResumeTick,"ax",%progbits
 186              		.align	1
 187              		.weak	HAL_ResumeTick
 188              		.thumb
 189              		.thumb_func
ARM GAS  /tmp/ccXsuKf4.s 			page 4


 191              	HAL_ResumeTick:
 192              		@ args = 0, pretend = 0, frame = 0
 193              		@ frame_needed = 0, uses_anonymous_args = 0
 194              		@ link register save eliminated.
 195 0000 024A     		ldr	r2, .L22
 196 0002 1368     		ldr	r3, [r2]
 197 0004 43F00203 		orr	r3, r3, #2
 198 0008 1360     		str	r3, [r2]
 199 000a 7047     		bx	lr
 200              	.L23:
 201              		.align	2
 202              	.L22:
 203 000c 10E000E0 		.word	-536813552
 205              		.section	.text.HAL_GetHalVersion,"ax",%progbits
 206              		.align	1
 207              		.global	HAL_GetHalVersion
 208              		.thumb
 209              		.thumb_func
 211              	HAL_GetHalVersion:
 212              		@ args = 0, pretend = 0, frame = 0
 213              		@ frame_needed = 0, uses_anonymous_args = 0
 214              		@ link register save eliminated.
 215 0000 0048     		ldr	r0, .L25
 216 0002 7047     		bx	lr
 217              	.L26:
 218              		.align	2
 219              	.L25:
 220 0004 00040001 		.word	16778240
 222              		.section	.text.HAL_GetREVID,"ax",%progbits
 223              		.align	1
 224              		.global	HAL_GetREVID
 225              		.thumb
 226              		.thumb_func
 228              	HAL_GetREVID:
 229              		@ args = 0, pretend = 0, frame = 0
 230              		@ frame_needed = 0, uses_anonymous_args = 0
 231              		@ link register save eliminated.
 232 0000 044B     		ldr	r3, .L28
 233 0002 1868     		ldr	r0, [r3]
 234 0004 044B     		ldr	r3, .L28+4
 235              	@ 531 "Drivers/CMSIS/Include/cmsis_gcc.h" 1
 236 0006 93FAA3F3 		rbit r3, r3
 237              	@ 0 "" 2
 238              		.thumb
 239 000a B3FA83F3 		clz	r3, r3
 240 000e D840     		lsrs	r0, r0, r3
 241 0010 7047     		bx	lr
 242              	.L29:
 243 0012 00BF     		.align	2
 244              	.L28:
 245 0014 002004E0 		.word	-536600576
 246 0018 0000FFFF 		.word	-65536
 248              		.section	.text.HAL_GetDEVID,"ax",%progbits
 249              		.align	1
 250              		.global	HAL_GetDEVID
 251              		.thumb
 252              		.thumb_func
ARM GAS  /tmp/ccXsuKf4.s 			page 5


 254              	HAL_GetDEVID:
 255              		@ args = 0, pretend = 0, frame = 0
 256              		@ frame_needed = 0, uses_anonymous_args = 0
 257              		@ link register save eliminated.
 258 0000 024B     		ldr	r3, .L31
 259 0002 1868     		ldr	r0, [r3]
 260 0004 C0F30B00 		ubfx	r0, r0, #0, #12
 261 0008 7047     		bx	lr
 262              	.L32:
 263 000a 00BF     		.align	2
 264              	.L31:
 265 000c 002004E0 		.word	-536600576
 267              		.section	.text.HAL_DBGMCU_EnableDBGSleepMode,"ax",%progbits
 268              		.align	1
 269              		.global	HAL_DBGMCU_EnableDBGSleepMode
 270              		.thumb
 271              		.thumb_func
 273              	HAL_DBGMCU_EnableDBGSleepMode:
 274              		@ args = 0, pretend = 0, frame = 0
 275              		@ frame_needed = 0, uses_anonymous_args = 0
 276              		@ link register save eliminated.
 277 0000 024A     		ldr	r2, .L34
 278 0002 5368     		ldr	r3, [r2, #4]
 279 0004 43F00103 		orr	r3, r3, #1
 280 0008 5360     		str	r3, [r2, #4]
 281 000a 7047     		bx	lr
 282              	.L35:
 283              		.align	2
 284              	.L34:
 285 000c 002004E0 		.word	-536600576
 287              		.section	.text.HAL_DBGMCU_DisableDBGSleepMode,"ax",%progbits
 288              		.align	1
 289              		.global	HAL_DBGMCU_DisableDBGSleepMode
 290              		.thumb
 291              		.thumb_func
 293              	HAL_DBGMCU_DisableDBGSleepMode:
 294              		@ args = 0, pretend = 0, frame = 0
 295              		@ frame_needed = 0, uses_anonymous_args = 0
 296              		@ link register save eliminated.
 297 0000 024A     		ldr	r2, .L37
 298 0002 5368     		ldr	r3, [r2, #4]
 299 0004 23F00103 		bic	r3, r3, #1
 300 0008 5360     		str	r3, [r2, #4]
 301 000a 7047     		bx	lr
 302              	.L38:
 303              		.align	2
 304              	.L37:
 305 000c 002004E0 		.word	-536600576
 307              		.section	.text.HAL_DBGMCU_EnableDBGStopMode,"ax",%progbits
 308              		.align	1
 309              		.global	HAL_DBGMCU_EnableDBGStopMode
 310              		.thumb
 311              		.thumb_func
 313              	HAL_DBGMCU_EnableDBGStopMode:
 314              		@ args = 0, pretend = 0, frame = 0
 315              		@ frame_needed = 0, uses_anonymous_args = 0
 316              		@ link register save eliminated.
ARM GAS  /tmp/ccXsuKf4.s 			page 6


 317 0000 024A     		ldr	r2, .L40
 318 0002 5368     		ldr	r3, [r2, #4]
 319 0004 43F00203 		orr	r3, r3, #2
 320 0008 5360     		str	r3, [r2, #4]
 321 000a 7047     		bx	lr
 322              	.L41:
 323              		.align	2
 324              	.L40:
 325 000c 002004E0 		.word	-536600576
 327              		.section	.text.HAL_DBGMCU_DisableDBGStopMode,"ax",%progbits
 328              		.align	1
 329              		.global	HAL_DBGMCU_DisableDBGStopMode
 330              		.thumb
 331              		.thumb_func
 333              	HAL_DBGMCU_DisableDBGStopMode:
 334              		@ args = 0, pretend = 0, frame = 0
 335              		@ frame_needed = 0, uses_anonymous_args = 0
 336              		@ link register save eliminated.
 337 0000 024A     		ldr	r2, .L43
 338 0002 5368     		ldr	r3, [r2, #4]
 339 0004 23F00203 		bic	r3, r3, #2
 340 0008 5360     		str	r3, [r2, #4]
 341 000a 7047     		bx	lr
 342              	.L44:
 343              		.align	2
 344              	.L43:
 345 000c 002004E0 		.word	-536600576
 347              		.section	.text.HAL_DBGMCU_EnableDBGStandbyMode,"ax",%progbits
 348              		.align	1
 349              		.global	HAL_DBGMCU_EnableDBGStandbyMode
 350              		.thumb
 351              		.thumb_func
 353              	HAL_DBGMCU_EnableDBGStandbyMode:
 354              		@ args = 0, pretend = 0, frame = 0
 355              		@ frame_needed = 0, uses_anonymous_args = 0
 356              		@ link register save eliminated.
 357 0000 024A     		ldr	r2, .L46
 358 0002 5368     		ldr	r3, [r2, #4]
 359 0004 43F00403 		orr	r3, r3, #4
 360 0008 5360     		str	r3, [r2, #4]
 361 000a 7047     		bx	lr
 362              	.L47:
 363              		.align	2
 364              	.L46:
 365 000c 002004E0 		.word	-536600576
 367              		.section	.text.HAL_DBGMCU_DisableDBGStandbyMode,"ax",%progbits
 368              		.align	1
 369              		.global	HAL_DBGMCU_DisableDBGStandbyMode
 370              		.thumb
 371              		.thumb_func
 373              	HAL_DBGMCU_DisableDBGStandbyMode:
 374              		@ args = 0, pretend = 0, frame = 0
 375              		@ frame_needed = 0, uses_anonymous_args = 0
 376              		@ link register save eliminated.
 377 0000 024A     		ldr	r2, .L49
 378 0002 5368     		ldr	r3, [r2, #4]
 379 0004 23F00403 		bic	r3, r3, #4
ARM GAS  /tmp/ccXsuKf4.s 			page 7


 380 0008 5360     		str	r3, [r2, #4]
 381 000a 7047     		bx	lr
 382              	.L50:
 383              		.align	2
 384              	.L49:
 385 000c 002004E0 		.word	-536600576
 387              		.section	.bss.uwTick,"aw",%nobits
 388              		.align	2
 389              		.set	.LANCHOR0,. + 0
 392              	uwTick:
 393 0000 00000000 		.space	4
 394              		.ident	"GCC: (4.9.2-10+14~bpo8+1) 4.9.2"
ARM GAS  /tmp/ccXsuKf4.s 			page 8

