ARM GAS  /tmp/ccYSmmEf.s 			page 1


   1              		.syntax unified
   2              		.cpu cortex-m3
   3              		.fpu softvfp
   4              		.eabi_attribute 20, 1
   5              		.eabi_attribute 21, 1
   6              		.eabi_attribute 23, 3
   7              		.eabi_attribute 24, 1
   8              		.eabi_attribute 25, 1
   9              		.eabi_attribute 26, 1
  10              		.eabi_attribute 30, 4
  11              		.eabi_attribute 34, 1
  12              		.eabi_attribute 18, 4
  13              		.thumb
  14              		.file	"stm32f1xx_hal_pwr.c"
  15              		.section	.text.PWR_OverloadWfe,"ax",%progbits
  16              		.align	1
  17              		.thumb
  18              		.thumb_func
  20              	PWR_OverloadWfe:
  21              		@ args = 0, pretend = 0, frame = 0
  22              		@ frame_needed = 0, uses_anonymous_args = 0
  23              		@ link register save eliminated.
  24              	@ 137 "Drivers/STM32F1xx_HAL_Driver/Src/stm32f1xx_hal_pwr.c" 1
  25 0000 20BF     		wfe
  26              	@ 0 "" 2
  27              	@ 138 "Drivers/STM32F1xx_HAL_Driver/Src/stm32f1xx_hal_pwr.c" 1
  28 0002 00BF     		nop
  29              	@ 0 "" 2
  30              		.thumb
  31 0004 7047     		bx	lr
  33              		.section	.text.HAL_PWR_DeInit,"ax",%progbits
  34              		.align	1
  35              		.global	HAL_PWR_DeInit
  36              		.thumb
  37              		.thumb_func
  39              	HAL_PWR_DeInit:
  40              		@ args = 0, pretend = 0, frame = 0
  41              		@ frame_needed = 0, uses_anonymous_args = 0
  42              		@ link register save eliminated.
  43 0000 044B     		ldr	r3, .L3
  44 0002 1A69     		ldr	r2, [r3, #16]
  45 0004 42F08052 		orr	r2, r2, #268435456
  46 0008 1A61     		str	r2, [r3, #16]
  47 000a 1A69     		ldr	r2, [r3, #16]
  48 000c 22F08052 		bic	r2, r2, #268435456
  49 0010 1A61     		str	r2, [r3, #16]
  50 0012 7047     		bx	lr
  51              	.L4:
  52              		.align	2
  53              	.L3:
  54 0014 00100240 		.word	1073876992
  56              		.section	.text.HAL_PWR_EnableBkUpAccess,"ax",%progbits
  57              		.align	1
  58              		.global	HAL_PWR_EnableBkUpAccess
  59              		.thumb
  60              		.thumb_func
  62              	HAL_PWR_EnableBkUpAccess:
ARM GAS  /tmp/ccYSmmEf.s 			page 2


  63              		@ args = 0, pretend = 0, frame = 0
  64              		@ frame_needed = 0, uses_anonymous_args = 0
  65              		@ link register save eliminated.
  66 0000 4FF48073 		mov	r3, #256
  67              	@ 531 "Drivers/CMSIS/Include/cmsis_gcc.h" 1
  68 0004 93FAA3F3 		rbit r3, r3
  69              	@ 0 "" 2
  70              		.thumb
  71 0008 B3FA83F3 		clz	r3, r3
  72 000c 9B00     		lsls	r3, r3, #2
  73 000e 03F18443 		add	r3, r3, #1107296256
  74 0012 03F56023 		add	r3, r3, #917504
  75 0016 0122     		movs	r2, #1
  76 0018 1A60     		str	r2, [r3]
  77 001a 7047     		bx	lr
  79              		.section	.text.HAL_PWR_DisableBkUpAccess,"ax",%progbits
  80              		.align	1
  81              		.global	HAL_PWR_DisableBkUpAccess
  82              		.thumb
  83              		.thumb_func
  85              	HAL_PWR_DisableBkUpAccess:
  86              		@ args = 0, pretend = 0, frame = 0
  87              		@ frame_needed = 0, uses_anonymous_args = 0
  88              		@ link register save eliminated.
  89 0000 4FF48073 		mov	r3, #256
  90              	@ 531 "Drivers/CMSIS/Include/cmsis_gcc.h" 1
  91 0004 93FAA3F3 		rbit r3, r3
  92              	@ 0 "" 2
  93              		.thumb
  94 0008 B3FA83F3 		clz	r3, r3
  95 000c 9B00     		lsls	r3, r3, #2
  96 000e 03F18443 		add	r3, r3, #1107296256
  97 0012 03F56023 		add	r3, r3, #917504
  98 0016 0022     		movs	r2, #0
  99 0018 1A60     		str	r2, [r3]
 100 001a 7047     		bx	lr
 102              		.section	.text.HAL_PWR_ConfigPVD,"ax",%progbits
 103              		.align	1
 104              		.global	HAL_PWR_ConfigPVD
 105              		.thumb
 106              		.thumb_func
 108              	HAL_PWR_ConfigPVD:
 109              		@ args = 0, pretend = 0, frame = 0
 110              		@ frame_needed = 0, uses_anonymous_args = 0
 111              		@ link register save eliminated.
 112 0000 1849     		ldr	r1, .L24
 113 0002 0B68     		ldr	r3, [r1]
 114 0004 23F0E002 		bic	r2, r3, #224
 115 0008 0368     		ldr	r3, [r0]
 116 000a 1343     		orrs	r3, r3, r2
 117 000c 0B60     		str	r3, [r1]
 118 000e 164B     		ldr	r3, .L24+4
 119 0010 5A68     		ldr	r2, [r3, #4]
 120 0012 22F48032 		bic	r2, r2, #65536
 121 0016 5A60     		str	r2, [r3, #4]
 122 0018 1A68     		ldr	r2, [r3]
 123 001a 22F48032 		bic	r2, r2, #65536
ARM GAS  /tmp/ccYSmmEf.s 			page 3


 124 001e 1A60     		str	r2, [r3]
 125 0020 DA68     		ldr	r2, [r3, #12]
 126 0022 22F48032 		bic	r2, r2, #65536
 127 0026 DA60     		str	r2, [r3, #12]
 128 0028 9A68     		ldr	r2, [r3, #8]
 129 002a 22F48032 		bic	r2, r2, #65536
 130 002e 9A60     		str	r2, [r3, #8]
 131 0030 4268     		ldr	r2, [r0, #4]
 132 0032 D103     		lsls	r1, r2, #15
 133 0034 42BF     		ittt	mi
 134 0036 1968     		ldrmi	r1, [r3]
 135 0038 41F48031 		orrmi	r1, r1, #65536
 136 003c 1960     		strmi	r1, [r3]
 137 003e 9003     		lsls	r0, r2, #14
 138 0040 42BF     		ittt	mi
 139 0042 5968     		ldrmi	r1, [r3, #4]
 140 0044 41F48031 		orrmi	r1, r1, #65536
 141 0048 5960     		strmi	r1, [r3, #4]
 142 004a D107     		lsls	r1, r2, #31
 143 004c 42BF     		ittt	mi
 144 004e 9968     		ldrmi	r1, [r3, #8]
 145 0050 41F48031 		orrmi	r1, r1, #65536
 146 0054 9960     		strmi	r1, [r3, #8]
 147 0056 9207     		lsls	r2, r2, #30
 148 0058 42BF     		ittt	mi
 149 005a DA68     		ldrmi	r2, [r3, #12]
 150 005c 42F48032 		orrmi	r2, r2, #65536
 151 0060 DA60     		strmi	r2, [r3, #12]
 152 0062 7047     		bx	lr
 153              	.L25:
 154              		.align	2
 155              	.L24:
 156 0064 00700040 		.word	1073770496
 157 0068 00040140 		.word	1073808384
 159              		.section	.text.HAL_PWR_EnablePVD,"ax",%progbits
 160              		.align	1
 161              		.global	HAL_PWR_EnablePVD
 162              		.thumb
 163              		.thumb_func
 165              	HAL_PWR_EnablePVD:
 166              		@ args = 0, pretend = 0, frame = 0
 167              		@ frame_needed = 0, uses_anonymous_args = 0
 168              		@ link register save eliminated.
 169 0000 1023     		movs	r3, #16
 170              	@ 531 "Drivers/CMSIS/Include/cmsis_gcc.h" 1
 171 0002 93FAA3F3 		rbit r3, r3
 172              	@ 0 "" 2
 173              		.thumb
 174 0006 B3FA83F3 		clz	r3, r3
 175 000a 9B00     		lsls	r3, r3, #2
 176 000c 03F18443 		add	r3, r3, #1107296256
 177 0010 03F56023 		add	r3, r3, #917504
 178 0014 0122     		movs	r2, #1
 179 0016 1A60     		str	r2, [r3]
 180 0018 7047     		bx	lr
 182              		.section	.text.HAL_PWR_DisablePVD,"ax",%progbits
 183              		.align	1
ARM GAS  /tmp/ccYSmmEf.s 			page 4


 184              		.global	HAL_PWR_DisablePVD
 185              		.thumb
 186              		.thumb_func
 188              	HAL_PWR_DisablePVD:
 189              		@ args = 0, pretend = 0, frame = 0
 190              		@ frame_needed = 0, uses_anonymous_args = 0
 191              		@ link register save eliminated.
 192 0000 1023     		movs	r3, #16
 193              	@ 531 "Drivers/CMSIS/Include/cmsis_gcc.h" 1
 194 0002 93FAA3F3 		rbit r3, r3
 195              	@ 0 "" 2
 196              		.thumb
 197 0006 B3FA83F3 		clz	r3, r3
 198 000a 9B00     		lsls	r3, r3, #2
 199 000c 03F18443 		add	r3, r3, #1107296256
 200 0010 03F56023 		add	r3, r3, #917504
 201 0014 0022     		movs	r2, #0
 202 0016 1A60     		str	r2, [r3]
 203 0018 7047     		bx	lr
 205              		.section	.text.HAL_PWR_EnableWakeUpPin,"ax",%progbits
 206              		.align	1
 207              		.global	HAL_PWR_EnableWakeUpPin
 208              		.thumb
 209              		.thumb_func
 211              	HAL_PWR_EnableWakeUpPin:
 212              		@ args = 0, pretend = 0, frame = 0
 213              		@ frame_needed = 0, uses_anonymous_args = 0
 214              		@ link register save eliminated.
 215              	@ 531 "Drivers/CMSIS/Include/cmsis_gcc.h" 1
 216 0000 90FAA0F0 		rbit r0, r0
 217              	@ 0 "" 2
 218              		.thumb
 219 0004 B0FA80F0 		clz	r0, r0
 220 0008 024B     		ldr	r3, .L29
 221 000a 0122     		movs	r2, #1
 222 000c 43F82020 		str	r2, [r3, r0, lsl #2]
 223 0010 7047     		bx	lr
 224              	.L30:
 225 0012 00BF     		.align	2
 226              	.L29:
 227 0014 80000E42 		.word	1108213888
 229              		.section	.text.HAL_PWR_DisableWakeUpPin,"ax",%progbits
 230              		.align	1
 231              		.global	HAL_PWR_DisableWakeUpPin
 232              		.thumb
 233              		.thumb_func
 235              	HAL_PWR_DisableWakeUpPin:
 236              		@ args = 0, pretend = 0, frame = 0
 237              		@ frame_needed = 0, uses_anonymous_args = 0
 238              		@ link register save eliminated.
 239              	@ 531 "Drivers/CMSIS/Include/cmsis_gcc.h" 1
 240 0000 90FAA0F0 		rbit r0, r0
 241              	@ 0 "" 2
 242              		.thumb
 243 0004 B0FA80F0 		clz	r0, r0
 244 0008 024B     		ldr	r3, .L32
 245 000a 0022     		movs	r2, #0
ARM GAS  /tmp/ccYSmmEf.s 			page 5


 246 000c 43F82020 		str	r2, [r3, r0, lsl #2]
 247 0010 7047     		bx	lr
 248              	.L33:
 249 0012 00BF     		.align	2
 250              	.L32:
 251 0014 80000E42 		.word	1108213888
 253              		.section	.text.HAL_PWR_EnterSLEEPMode,"ax",%progbits
 254              		.align	1
 255              		.global	HAL_PWR_EnterSLEEPMode
 256              		.thumb
 257              		.thumb_func
 259              	HAL_PWR_EnterSLEEPMode:
 260              		@ args = 0, pretend = 0, frame = 0
 261              		@ frame_needed = 0, uses_anonymous_args = 0
 262              		@ link register save eliminated.
 263 0000 064A     		ldr	r2, .L38
 264 0002 0129     		cmp	r1, #1
 265 0004 1369     		ldr	r3, [r2, #16]
 266 0006 23F00403 		bic	r3, r3, #4
 267 000a 1361     		str	r3, [r2, #16]
 268 000c 01D1     		bne	.L35
 269              	@ 385 "Drivers/CMSIS/Include/cmsis_gcc.h" 1
 270 000e 30BF     		wfi
 271              	@ 0 "" 2
 272              		.thumb
 273 0010 7047     		bx	lr
 274              	.L35:
 275              	@ 406 "Drivers/CMSIS/Include/cmsis_gcc.h" 1
 276 0012 40BF     		sev
 277              	@ 0 "" 2
 278              	@ 396 "Drivers/CMSIS/Include/cmsis_gcc.h" 1
 279 0014 20BF     		wfe
 280              	@ 0 "" 2
 281              	@ 396 "Drivers/CMSIS/Include/cmsis_gcc.h" 1
 282 0016 20BF     		wfe
 283              	@ 0 "" 2
 284              		.thumb
 285 0018 7047     		bx	lr
 286              	.L39:
 287 001a 00BF     		.align	2
 288              	.L38:
 289 001c 00ED00E0 		.word	-536810240
 291              		.section	.text.HAL_PWR_EnterSTOPMode,"ax",%progbits
 292              		.align	1
 293              		.global	HAL_PWR_EnterSTOPMode
 294              		.thumb
 295              		.thumb_func
 297              	HAL_PWR_EnterSTOPMode:
 298              		@ args = 0, pretend = 0, frame = 0
 299              		@ frame_needed = 0, uses_anonymous_args = 0
 300 0000 0F4A     		ldr	r2, .L43
 301 0002 10B5     		push	{r4, lr}
 302 0004 1368     		ldr	r3, [r2]
 303 0006 0129     		cmp	r1, #1
 304 0008 23F00203 		bic	r3, r3, #2
 305 000c 1360     		str	r3, [r2]
 306 000e 1368     		ldr	r3, [r2]
ARM GAS  /tmp/ccYSmmEf.s 			page 6


 307 0010 23F00103 		bic	r3, r3, #1
 308 0014 40EA0300 		orr	r0, r0, r3
 309 0018 0A4B     		ldr	r3, .L43+4
 310 001a 1060     		str	r0, [r2]
 311 001c 1A69     		ldr	r2, [r3, #16]
 312 001e 1C46     		mov	r4, r3
 313 0020 42F00402 		orr	r2, r2, #4
 314 0024 1A61     		str	r2, [r3, #16]
 315 0026 01D1     		bne	.L41
 316              	@ 385 "Drivers/CMSIS/Include/cmsis_gcc.h" 1
 317 0028 30BF     		wfi
 318              	@ 0 "" 2
 319              		.thumb
 320 002a 04E0     		b	.L42
 321              	.L41:
 322              	@ 406 "Drivers/CMSIS/Include/cmsis_gcc.h" 1
 323 002c 40BF     		sev
 324              	@ 0 "" 2
 325              		.thumb
 326 002e FFF7FEFF 		bl	PWR_OverloadWfe
 327 0032 FFF7FEFF 		bl	PWR_OverloadWfe
 328              	.L42:
 329 0036 2369     		ldr	r3, [r4, #16]
 330 0038 23F00403 		bic	r3, r3, #4
 331 003c 2361     		str	r3, [r4, #16]
 332 003e 10BD     		pop	{r4, pc}
 333              	.L44:
 334              		.align	2
 335              	.L43:
 336 0040 00700040 		.word	1073770496
 337 0044 00ED00E0 		.word	-536810240
 339              		.section	.text.HAL_PWR_EnterSTANDBYMode,"ax",%progbits
 340              		.align	1
 341              		.global	HAL_PWR_EnterSTANDBYMode
 342              		.thumb
 343              		.thumb_func
 345              	HAL_PWR_EnterSTANDBYMode:
 346              		@ args = 0, pretend = 0, frame = 0
 347              		@ frame_needed = 0, uses_anonymous_args = 0
 348              		@ link register save eliminated.
 349 0000 054A     		ldr	r2, .L46
 350 0002 1368     		ldr	r3, [r2]
 351 0004 43F00203 		orr	r3, r3, #2
 352 0008 1360     		str	r3, [r2]
 353 000a 044A     		ldr	r2, .L46+4
 354 000c 1369     		ldr	r3, [r2, #16]
 355 000e 43F00403 		orr	r3, r3, #4
 356 0012 1361     		str	r3, [r2, #16]
 357              	@ 385 "Drivers/CMSIS/Include/cmsis_gcc.h" 1
 358 0014 30BF     		wfi
 359              	@ 0 "" 2
 360              		.thumb
 361 0016 7047     		bx	lr
 362              	.L47:
 363              		.align	2
 364              	.L46:
 365 0018 00700040 		.word	1073770496
ARM GAS  /tmp/ccYSmmEf.s 			page 7


 366 001c 00ED00E0 		.word	-536810240
 368              		.section	.text.HAL_PWR_EnableSleepOnExit,"ax",%progbits
 369              		.align	1
 370              		.global	HAL_PWR_EnableSleepOnExit
 371              		.thumb
 372              		.thumb_func
 374              	HAL_PWR_EnableSleepOnExit:
 375              		@ args = 0, pretend = 0, frame = 0
 376              		@ frame_needed = 0, uses_anonymous_args = 0
 377              		@ link register save eliminated.
 378 0000 024A     		ldr	r2, .L49
 379 0002 1369     		ldr	r3, [r2, #16]
 380 0004 43F00203 		orr	r3, r3, #2
 381 0008 1361     		str	r3, [r2, #16]
 382 000a 7047     		bx	lr
 383              	.L50:
 384              		.align	2
 385              	.L49:
 386 000c 00ED00E0 		.word	-536810240
 388              		.section	.text.HAL_PWR_DisableSleepOnExit,"ax",%progbits
 389              		.align	1
 390              		.global	HAL_PWR_DisableSleepOnExit
 391              		.thumb
 392              		.thumb_func
 394              	HAL_PWR_DisableSleepOnExit:
 395              		@ args = 0, pretend = 0, frame = 0
 396              		@ frame_needed = 0, uses_anonymous_args = 0
 397              		@ link register save eliminated.
 398 0000 024A     		ldr	r2, .L52
 399 0002 1369     		ldr	r3, [r2, #16]
 400 0004 23F00203 		bic	r3, r3, #2
 401 0008 1361     		str	r3, [r2, #16]
 402 000a 7047     		bx	lr
 403              	.L53:
 404              		.align	2
 405              	.L52:
 406 000c 00ED00E0 		.word	-536810240
 408              		.section	.text.HAL_PWR_EnableSEVOnPend,"ax",%progbits
 409              		.align	1
 410              		.global	HAL_PWR_EnableSEVOnPend
 411              		.thumb
 412              		.thumb_func
 414              	HAL_PWR_EnableSEVOnPend:
 415              		@ args = 0, pretend = 0, frame = 0
 416              		@ frame_needed = 0, uses_anonymous_args = 0
 417              		@ link register save eliminated.
 418 0000 024A     		ldr	r2, .L55
 419 0002 1369     		ldr	r3, [r2, #16]
 420 0004 43F01003 		orr	r3, r3, #16
 421 0008 1361     		str	r3, [r2, #16]
 422 000a 7047     		bx	lr
 423              	.L56:
 424              		.align	2
 425              	.L55:
 426 000c 00ED00E0 		.word	-536810240
 428              		.section	.text.HAL_PWR_DisableSEVOnPend,"ax",%progbits
 429              		.align	1
ARM GAS  /tmp/ccYSmmEf.s 			page 8


 430              		.global	HAL_PWR_DisableSEVOnPend
 431              		.thumb
 432              		.thumb_func
 434              	HAL_PWR_DisableSEVOnPend:
 435              		@ args = 0, pretend = 0, frame = 0
 436              		@ frame_needed = 0, uses_anonymous_args = 0
 437              		@ link register save eliminated.
 438 0000 024A     		ldr	r2, .L58
 439 0002 1369     		ldr	r3, [r2, #16]
 440 0004 23F01003 		bic	r3, r3, #16
 441 0008 1361     		str	r3, [r2, #16]
 442 000a 7047     		bx	lr
 443              	.L59:
 444              		.align	2
 445              	.L58:
 446 000c 00ED00E0 		.word	-536810240
 448              		.section	.text.HAL_PWR_PVDCallback,"ax",%progbits
 449              		.align	1
 450              		.weak	HAL_PWR_PVDCallback
 451              		.thumb
 452              		.thumb_func
 454              	HAL_PWR_PVDCallback:
 455              		@ args = 0, pretend = 0, frame = 0
 456              		@ frame_needed = 0, uses_anonymous_args = 0
 457              		@ link register save eliminated.
 458 0000 7047     		bx	lr
 460              		.section	.text.HAL_PWR_PVD_IRQHandler,"ax",%progbits
 461              		.align	1
 462              		.global	HAL_PWR_PVD_IRQHandler
 463              		.thumb
 464              		.thumb_func
 466              	HAL_PWR_PVD_IRQHandler:
 467              		@ args = 0, pretend = 0, frame = 0
 468              		@ frame_needed = 0, uses_anonymous_args = 0
 469 0000 10B5     		push	{r4, lr}
 470 0002 054C     		ldr	r4, .L66
 471 0004 6369     		ldr	r3, [r4, #20]
 472 0006 DB03     		lsls	r3, r3, #15
 473 0008 04D5     		bpl	.L61
 474 000a FFF7FEFF 		bl	HAL_PWR_PVDCallback
 475 000e 4FF48033 		mov	r3, #65536
 476 0012 6361     		str	r3, [r4, #20]
 477              	.L61:
 478 0014 10BD     		pop	{r4, pc}
 479              	.L67:
 480 0016 00BF     		.align	2
 481              	.L66:
 482 0018 00040140 		.word	1073808384
 484              		.ident	"GCC: (4.9.2-10+14~bpo8+1) 4.9.2"
ARM GAS  /tmp/ccYSmmEf.s 			page 9

