ARM GAS  /tmp/ccA2ajd7.s 			page 1


   1              		.syntax unified
   2              		.cpu cortex-m3
   3              		.fpu softvfp
   4              		.eabi_attribute 20, 1
   5              		.eabi_attribute 21, 1
   6              		.eabi_attribute 23, 3
   7              		.eabi_attribute 24, 1
   8              		.eabi_attribute 25, 1
   9              		.eabi_attribute 26, 1
  10              		.eabi_attribute 30, 4
  11              		.eabi_attribute 34, 1
  12              		.eabi_attribute 18, 4
  13              		.thumb
  14              		.file	"stm32f1xx_hal_rcc_ex.c"
  15              		.section	.text.HAL_RCCEx_PeriphCLKConfig,"ax",%progbits
  16              		.align	1
  17              		.global	HAL_RCCEx_PeriphCLKConfig
  18              		.thumb
  19              		.thumb_func
  21              	HAL_RCCEx_PeriphCLKConfig:
  22              		@ args = 0, pretend = 0, frame = 8
  23              		@ frame_needed = 0, uses_anonymous_args = 0
  24 0000 0368     		ldr	r3, [r0]
  25 0002 F7B5     		push	{r0, r1, r2, r4, r5, r6, r7, lr}
  26 0004 0546     		mov	r5, r0
  27 0006 D807     		lsls	r0, r3, #31
  28 0008 67D5     		bpl	.L2
  29 000a 3B4C     		ldr	r4, .L23
  30 000c 3B4A     		ldr	r2, .L23+4
  31 000e E369     		ldr	r3, [r4, #28]
  32 0010 43F08053 		orr	r3, r3, #268435456
  33 0014 E361     		str	r3, [r4, #28]
  34 0016 E369     		ldr	r3, [r4, #28]
  35 0018 03F08053 		and	r3, r3, #268435456
  36 001c 0193     		str	r3, [sp, #4]
  37 001e 019B     		ldr	r3, [sp, #4]
  38 0020 1368     		ldr	r3, [r2]
  39 0022 43F48073 		orr	r3, r3, #256
  40 0026 1360     		str	r3, [r2]
  41 0028 FFF7FEFF 		bl	HAL_GetTick
  42 002c 0646     		mov	r6, r0
  43              	.L3:
  44 002e 334B     		ldr	r3, .L23+4
  45 0030 1B68     		ldr	r3, [r3]
  46 0032 D905     		lsls	r1, r3, #23
  47 0034 06D4     		bmi	.L22
  48 0036 FFF7FEFF 		bl	HAL_GetTick
  49 003a 801B     		subs	r0, r0, r6
  50 003c 6428     		cmp	r0, #100
  51 003e F6D9     		bls	.L3
  52              	.L9:
  53 0040 0320     		movs	r0, #3
  54 0042 56E0     		b	.L4
  55              	.L22:
  56 0044 236A     		ldr	r3, [r4, #32]
  57 0046 2C48     		ldr	r0, .L23
  58 0048 13F44073 		ands	r3, r3, #768
ARM GAS  /tmp/ccA2ajd7.s 			page 2


  59 004c 06D1     		bne	.L6
  60              	.L7:
  61 004e 236A     		ldr	r3, [r4, #32]
  62 0050 23F44072 		bic	r2, r3, #768
  63 0054 6B68     		ldr	r3, [r5, #4]
  64 0056 1343     		orrs	r3, r3, r2
  65 0058 2362     		str	r3, [r4, #32]
  66 005a 3EE0     		b	.L2
  67              	.L6:
  68 005c 6A68     		ldr	r2, [r5, #4]
  69 005e 02F44072 		and	r2, r2, #768
  70 0062 9342     		cmp	r3, r2
  71 0064 F3D0     		beq	.L7
  72 0066 016A     		ldr	r1, [r0, #32]
  73 0068 4FF48033 		mov	r3, #65536
  74 006c 21F44077 		bic	r7, r1, #768
  75              	@ 531 "Drivers/CMSIS/Include/cmsis_gcc.h" 1
  76 0070 93FAA3F2 		rbit r2, r3
  77              	@ 0 "" 2
  78              		.thumb
  79 0074 B2FA82F2 		clz	r2, r2
  80 0078 214E     		ldr	r6, .L23+8
  81 007a 4FF0010E 		mov	lr, #1
  82 007e 46F822E0 		str	lr, [r6, r2, lsl #2]
  83              	@ 531 "Drivers/CMSIS/Include/cmsis_gcc.h" 1
  84 0082 93FAA3F3 		rbit r3, r3
  85              	@ 0 "" 2
  86              		.thumb
  87 0086 B3FA83F3 		clz	r3, r3
  88 008a 0022     		movs	r2, #0
  89 008c 46F82320 		str	r2, [r6, r3, lsl #2]
  90 0090 CA07     		lsls	r2, r1, #31
  91 0092 0762     		str	r7, [r0, #32]
  92 0094 DBD5     		bpl	.L7
  93 0096 FFF7FEFF 		bl	HAL_GetTick
  94 009a 0646     		mov	r6, r0
  95              	.L8:
  96 009c 0223     		movs	r3, #2
  97              	@ 531 "Drivers/CMSIS/Include/cmsis_gcc.h" 1
  98 009e 93FAA3F2 		rbit r2, r3
  99              	@ 0 "" 2
 100              	@ 531 "Drivers/CMSIS/Include/cmsis_gcc.h" 1
 101 00a2 93FAA3F2 		rbit r2, r3
 102              	@ 0 "" 2
 103              		.thumb
 104 00a6 B2FA82F2 		clz	r2, r2
 105 00aa 42F04002 		orr	r2, r2, #64
 106 00ae 5209     		lsrs	r2, r2, #5
 107 00b0 9A42     		cmp	r2, r3
 108 00b2 0CBF     		ite	eq
 109 00b4 226A     		ldreq	r2, [r4, #32]
 110 00b6 626A     		ldrne	r2, [r4, #36]
 111              	@ 531 "Drivers/CMSIS/Include/cmsis_gcc.h" 1
 112 00b8 93FAA3F3 		rbit r3, r3
 113              	@ 0 "" 2
 114              		.thumb
 115 00bc B3FA83F3 		clz	r3, r3
ARM GAS  /tmp/ccA2ajd7.s 			page 3


 116 00c0 03F01F03 		and	r3, r3, #31
 117 00c4 DA40     		lsrs	r2, r2, r3
 118 00c6 D307     		lsls	r3, r2, #31
 119 00c8 C1D4     		bmi	.L7
 120 00ca FFF7FEFF 		bl	HAL_GetTick
 121 00ce 41F28833 		movw	r3, #5000
 122 00d2 801B     		subs	r0, r0, r6
 123 00d4 9842     		cmp	r0, r3
 124 00d6 E1D9     		bls	.L8
 125 00d8 B2E7     		b	.L9
 126              	.L2:
 127 00da 2868     		ldr	r0, [r5]
 128 00dc 10F00200 		ands	r0, r0, #2
 129 00e0 07D0     		beq	.L4
 130 00e2 0549     		ldr	r1, .L23
 131 00e4 0020     		movs	r0, #0
 132 00e6 4B68     		ldr	r3, [r1, #4]
 133 00e8 23F44042 		bic	r2, r3, #49152
 134 00ec AB68     		ldr	r3, [r5, #8]
 135 00ee 1343     		orrs	r3, r3, r2
 136 00f0 4B60     		str	r3, [r1, #4]
 137              	.L4:
 138 00f2 03B0     		add	sp, sp, #12
 139              		@ sp needed
 140 00f4 F0BD     		pop	{r4, r5, r6, r7, pc}
 141              	.L24:
 142 00f6 00BF     		.align	2
 143              	.L23:
 144 00f8 00100240 		.word	1073876992
 145 00fc 00700040 		.word	1073770496
 146 0100 00044242 		.word	1111622656
 148              		.section	.text.HAL_RCCEx_GetPeriphCLKConfig,"ax",%progbits
 149              		.align	1
 150              		.global	HAL_RCCEx_GetPeriphCLKConfig
 151              		.thumb
 152              		.thumb_func
 154              	HAL_RCCEx_GetPeriphCLKConfig:
 155              		@ args = 0, pretend = 0, frame = 0
 156              		@ frame_needed = 0, uses_anonymous_args = 0
 157              		@ link register save eliminated.
 158 0000 054A     		ldr	r2, .L26
 159 0002 136A     		ldr	r3, [r2, #32]
 160 0004 03F44073 		and	r3, r3, #768
 161 0008 4360     		str	r3, [r0, #4]
 162 000a 0323     		movs	r3, #3
 163 000c 0360     		str	r3, [r0]
 164 000e 5368     		ldr	r3, [r2, #4]
 165 0010 03F44043 		and	r3, r3, #49152
 166 0014 8360     		str	r3, [r0, #8]
 167 0016 7047     		bx	lr
 168              	.L27:
 169              		.align	2
 170              	.L26:
 171 0018 00100240 		.word	1073876992
 173              		.section	.text.HAL_RCCEx_GetPeriphCLKFreq,"ax",%progbits
 174              		.align	1
 175              		.global	HAL_RCCEx_GetPeriphCLKFreq
ARM GAS  /tmp/ccA2ajd7.s 			page 4


 176              		.thumb
 177              		.thumb_func
 179              	HAL_RCCEx_GetPeriphCLKFreq:
 180              		@ args = 0, pretend = 0, frame = 0
 181              		@ frame_needed = 0, uses_anonymous_args = 0
 182 0000 0128     		cmp	r0, #1
 183 0002 08B5     		push	{r3, lr}
 184 0004 13D0     		beq	.L30
 185 0006 0228     		cmp	r0, #2
 186 0008 32D1     		bne	.L36
 187 000a FFF7FEFF 		bl	HAL_RCC_GetPCLK2Freq
 188 000e 194B     		ldr	r3, .L40
 189 0010 4FF48042 		mov	r2, #16384
 190 0014 5B68     		ldr	r3, [r3, #4]
 191              	@ 531 "Drivers/CMSIS/Include/cmsis_gcc.h" 1
 192 0016 92FAA2F2 		rbit r2, r2
 193              	@ 0 "" 2
 194              		.thumb
 195 001a B2FA82F2 		clz	r2, r2
 196 001e 03F44043 		and	r3, r3, #49152
 197 0022 D340     		lsrs	r3, r3, r2
 198 0024 0133     		adds	r3, r3, #1
 199 0026 5B00     		lsls	r3, r3, #1
 200 0028 B0FBF3F0 		udiv	r0, r0, r3
 201 002c 08BD     		pop	{r3, pc}
 202              	.L30:
 203 002e 40F20231 		movw	r1, #770
 204 0032 104A     		ldr	r2, .L40
 205 0034 136A     		ldr	r3, [r2, #32]
 206 0036 1940     		ands	r1, r1, r3
 207 0038 B1F5817F 		cmp	r1, #258
 208 003c 15D0     		beq	.L34
 209 003e 03F44073 		and	r3, r3, #768
 210 0042 B3F5007F 		cmp	r3, #512
 211 0046 05D1     		bne	.L32
 212 0048 536A     		ldr	r3, [r2, #36]
 213 004a 49F64040 		movw	r0, #40000
 214 004e 13F0020F 		tst	r3, #2
 215 0052 07E0     		b	.L39
 216              	.L32:
 217 0054 B3F5407F 		cmp	r3, #768
 218 0058 0AD1     		bne	.L36
 219 005a 4FF22440 		movw	r0, #62500
 220 005e 1368     		ldr	r3, [r2]
 221 0060 13F4003F 		tst	r3, #131072
 222              	.L39:
 223 0064 08BF     		it	eq
 224 0066 0020     		moveq	r0, #0
 225 0068 08BD     		pop	{r3, pc}
 226              	.L34:
 227 006a 4FF40040 		mov	r0, #32768
 228 006e 08BD     		pop	{r3, pc}
 229              	.L36:
 230 0070 0020     		movs	r0, #0
 231 0072 08BD     		pop	{r3, pc}
 232              	.L41:
 233              		.align	2
ARM GAS  /tmp/ccA2ajd7.s 			page 5


 234              	.L40:
 235 0074 00100240 		.word	1073876992
 237              		.ident	"GCC: (4.9.2-10+14~bpo8+1) 4.9.2"
ARM GAS  /tmp/ccA2ajd7.s 			page 6

