ARM GAS  /tmp/cciUsAoE.s 			page 1


   1              		.syntax unified
   2              		.cpu cortex-m3
   3              		.fpu softvfp
   4              		.eabi_attribute 20, 1
   5              		.eabi_attribute 21, 1
   6              		.eabi_attribute 23, 3
   7              		.eabi_attribute 24, 1
   8              		.eabi_attribute 25, 1
   9              		.eabi_attribute 26, 1
  10              		.eabi_attribute 30, 4
  11              		.eabi_attribute 34, 1
  12              		.eabi_attribute 18, 4
  13              		.thumb
  14              		.file	"stm32f1xx_hal_tim.c"
  15              		.section	.text.TIM_OC1_SetConfig,"ax",%progbits
  16              		.align	1
  17              		.thumb
  18              		.thumb_func
  20              	TIM_OC1_SetConfig:
  21              		@ args = 0, pretend = 0, frame = 0
  22              		@ frame_needed = 0, uses_anonymous_args = 0
  23 0000 036A     		ldr	r3, [r0, #32]
  24 0002 70B5     		push	{r4, r5, r6, lr}
  25 0004 23F00103 		bic	r3, r3, #1
  26 0008 0362     		str	r3, [r0, #32]
  27 000a 036A     		ldr	r3, [r0, #32]
  28 000c 4268     		ldr	r2, [r0, #4]
  29 000e 8469     		ldr	r4, [r0, #24]
  30 0010 0D68     		ldr	r5, [r1]
  31 0012 24F07304 		bic	r4, r4, #115
  32 0016 2543     		orrs	r5, r5, r4
  33 0018 8C68     		ldr	r4, [r1, #8]
  34 001a 23F00203 		bic	r3, r3, #2
  35 001e 2343     		orrs	r3, r3, r4
  36 0020 174C     		ldr	r4, .L6
  37 0022 A042     		cmp	r0, r4
  38 0024 0BD0     		beq	.L2
  39 0026 04F5A054 		add	r4, r4, #5120
  40 002a A042     		cmp	r0, r4
  41 002c 07D0     		beq	.L2
  42 002e 04F58064 		add	r4, r4, #1024
  43 0032 A042     		cmp	r0, r4
  44 0034 03D0     		beq	.L2
  45 0036 04F58064 		add	r4, r4, #1024
  46 003a A042     		cmp	r0, r4
  47 003c 1AD1     		bne	.L3
  48              	.L2:
  49 003e CC68     		ldr	r4, [r1, #12]
  50 0040 23F00803 		bic	r3, r3, #8
  51 0044 2343     		orrs	r3, r3, r4
  52 0046 0E4C     		ldr	r4, .L6
  53 0048 23F00403 		bic	r3, r3, #4
  54 004c A042     		cmp	r0, r4
  55 004e 0BD0     		beq	.L4
  56 0050 04F5A054 		add	r4, r4, #5120
  57 0054 A042     		cmp	r0, r4
  58 0056 07D0     		beq	.L4
ARM GAS  /tmp/cciUsAoE.s 			page 2


  59 0058 04F58064 		add	r4, r4, #1024
  60 005c A042     		cmp	r0, r4
  61 005e 03D0     		beq	.L4
  62 0060 04F58064 		add	r4, r4, #1024
  63 0064 A042     		cmp	r0, r4
  64 0066 05D1     		bne	.L3
  65              	.L4:
  66 0068 8E69     		ldr	r6, [r1, #24]
  67 006a 4C69     		ldr	r4, [r1, #20]
  68 006c 22F44072 		bic	r2, r2, #768
  69 0070 3443     		orrs	r4, r4, r6
  70 0072 2243     		orrs	r2, r2, r4
  71              	.L3:
  72 0074 4260     		str	r2, [r0, #4]
  73 0076 4A68     		ldr	r2, [r1, #4]
  74 0078 8561     		str	r5, [r0, #24]
  75 007a 4263     		str	r2, [r0, #52]
  76 007c 0362     		str	r3, [r0, #32]
  77 007e 70BD     		pop	{r4, r5, r6, pc}
  78              	.L7:
  79              		.align	2
  80              	.L6:
  81 0080 002C0140 		.word	1073818624
  83              		.section	.text.TIM_OC3_SetConfig,"ax",%progbits
  84              		.align	1
  85              		.thumb
  86              		.thumb_func
  88              	TIM_OC3_SetConfig:
  89              		@ args = 0, pretend = 0, frame = 0
  90              		@ frame_needed = 0, uses_anonymous_args = 0
  91 0000 036A     		ldr	r3, [r0, #32]
  92 0002 30B5     		push	{r4, r5, lr}
  93 0004 23F48073 		bic	r3, r3, #256
  94 0008 0362     		str	r3, [r0, #32]
  95 000a 036A     		ldr	r3, [r0, #32]
  96 000c 4268     		ldr	r2, [r0, #4]
  97 000e C469     		ldr	r4, [r0, #28]
  98 0010 0D68     		ldr	r5, [r1]
  99 0012 24F07304 		bic	r4, r4, #115
 100 0016 2C43     		orrs	r4, r4, r5
 101 0018 8D68     		ldr	r5, [r1, #8]
 102 001a 23F40073 		bic	r3, r3, #512
 103 001e 43EA0523 		orr	r3, r3, r5, lsl #8
 104 0022 124D     		ldr	r5, .L16
 105 0024 A842     		cmp	r0, r5
 106 0026 07D1     		bne	.L9
 107 0028 CD68     		ldr	r5, [r1, #12]
 108 002a 23F40063 		bic	r3, r3, #2048
 109 002e 43EA0523 		orr	r3, r3, r5, lsl #8
 110 0032 23F48063 		bic	r3, r3, #1024
 111 0036 05E0     		b	.L10
 112              	.L9:
 113 0038 0D4D     		ldr	r5, .L16+4
 114 003a A842     		cmp	r0, r5
 115 003c 02D0     		beq	.L10
 116 003e 0D4D     		ldr	r5, .L16+8
 117 0040 A842     		cmp	r0, r5
ARM GAS  /tmp/cciUsAoE.s 			page 3


 118 0042 0DD1     		bne	.L15
 119              	.L10:
 120 0044 4D69     		ldr	r5, [r1, #20]
 121 0046 22F44052 		bic	r2, r2, #12288
 122 004a 42EA0512 		orr	r2, r2, r5, lsl #4
 123 004e 8D69     		ldr	r5, [r1, #24]
 124 0050 42EA0512 		orr	r2, r2, r5, lsl #4
 125              	.L11:
 126 0054 4260     		str	r2, [r0, #4]
 127 0056 4A68     		ldr	r2, [r1, #4]
 128 0058 C461     		str	r4, [r0, #28]
 129 005a C263     		str	r2, [r0, #60]
 130 005c 0362     		str	r3, [r0, #32]
 131 005e 30BD     		pop	{r4, r5, pc}
 132              	.L15:
 133 0060 05F58065 		add	r5, r5, #1024
 134 0064 A842     		cmp	r0, r5
 135 0066 F5D1     		bne	.L11
 136 0068 ECE7     		b	.L10
 137              	.L17:
 138 006a 00BF     		.align	2
 139              	.L16:
 140 006c 002C0140 		.word	1073818624
 141 0070 00400140 		.word	1073823744
 142 0074 00440140 		.word	1073824768
 144              		.section	.text.TIM_OC4_SetConfig,"ax",%progbits
 145              		.align	1
 146              		.thumb
 147              		.thumb_func
 149              	TIM_OC4_SetConfig:
 150              		@ args = 0, pretend = 0, frame = 0
 151              		@ frame_needed = 0, uses_anonymous_args = 0
 152 0000 036A     		ldr	r3, [r0, #32]
 153 0002 30B5     		push	{r4, r5, lr}
 154 0004 23F48053 		bic	r3, r3, #4096
 155 0008 0362     		str	r3, [r0, #32]
 156 000a 036A     		ldr	r3, [r0, #32]
 157 000c 4468     		ldr	r4, [r0, #4]
 158 000e C269     		ldr	r2, [r0, #28]
 159 0010 0D68     		ldr	r5, [r1]
 160 0012 22F4E642 		bic	r2, r2, #29440
 161 0016 42EA0522 		orr	r2, r2, r5, lsl #8
 162 001a 8D68     		ldr	r5, [r1, #8]
 163 001c 23F40053 		bic	r3, r3, #8192
 164 0020 43EA0533 		orr	r3, r3, r5, lsl #12
 165 0024 0C4D     		ldr	r5, .L21
 166 0026 A842     		cmp	r0, r5
 167 0028 0BD0     		beq	.L19
 168 002a 05F5A055 		add	r5, r5, #5120
 169 002e A842     		cmp	r0, r5
 170 0030 07D0     		beq	.L19
 171 0032 05F58065 		add	r5, r5, #1024
 172 0036 A842     		cmp	r0, r5
 173 0038 03D0     		beq	.L19
 174 003a 05F58065 		add	r5, r5, #1024
 175 003e A842     		cmp	r0, r5
 176 0040 04D1     		bne	.L20
ARM GAS  /tmp/cciUsAoE.s 			page 4


 177              	.L19:
 178 0042 4D69     		ldr	r5, [r1, #20]
 179 0044 24F48044 		bic	r4, r4, #16384
 180 0048 44EA8514 		orr	r4, r4, r5, lsl #6
 181              	.L20:
 182 004c 4460     		str	r4, [r0, #4]
 183 004e C261     		str	r2, [r0, #28]
 184 0050 4A68     		ldr	r2, [r1, #4]
 185 0052 0264     		str	r2, [r0, #64]
 186 0054 0362     		str	r3, [r0, #32]
 187 0056 30BD     		pop	{r4, r5, pc}
 188              	.L22:
 189              		.align	2
 190              	.L21:
 191 0058 002C0140 		.word	1073818624
 193              		.section	.text.TIM_SlaveTimer_SetConfig,"ax",%progbits
 194              		.align	1
 195              		.thumb
 196              		.thumb_func
 198              	TIM_SlaveTimer_SetConfig:
 199              		@ args = 0, pretend = 0, frame = 0
 200              		@ frame_needed = 0, uses_anonymous_args = 0
 201 0000 0368     		ldr	r3, [r0]
 202 0002 4868     		ldr	r0, [r1, #4]
 203 0004 9A68     		ldr	r2, [r3, #8]
 204 0006 30B5     		push	{r4, r5, lr}
 205 0008 22F07002 		bic	r2, r2, #112
 206 000c 0C68     		ldr	r4, [r1]
 207 000e 0243     		orrs	r2, r2, r0
 208 0010 22F00702 		bic	r2, r2, #7
 209 0014 2243     		orrs	r2, r2, r4
 210 0016 5028     		cmp	r0, #80
 211 0018 9A60     		str	r2, [r3, #8]
 212 001a 21D0     		beq	.L25
 213 001c 02D8     		bhi	.L26
 214 001e 4028     		cmp	r0, #64
 215 0020 10D0     		beq	.L27
 216 0022 30BD     		pop	{r4, r5, pc}
 217              	.L26:
 218 0024 6028     		cmp	r0, #96
 219 0026 2DD0     		beq	.L28
 220 0028 7028     		cmp	r0, #112
 221 002a 3DD1     		bne	.L23
 222 002c 8C68     		ldr	r4, [r1, #8]
 223 002e CA68     		ldr	r2, [r1, #12]
 224 0030 9868     		ldr	r0, [r3, #8]
 225 0032 0969     		ldr	r1, [r1, #16]
 226 0034 2243     		orrs	r2, r2, r4
 227 0036 20F47F40 		bic	r0, r0, #65280
 228 003a 0243     		orrs	r2, r2, r0
 229 003c 42EA0122 		orr	r2, r2, r1, lsl #8
 230 0040 9A60     		str	r2, [r3, #8]
 231 0042 30BD     		pop	{r4, r5, pc}
 232              	.L27:
 233 0044 186A     		ldr	r0, [r3, #32]
 234 0046 1A6A     		ldr	r2, [r3, #32]
 235 0048 0969     		ldr	r1, [r1, #16]
ARM GAS  /tmp/cciUsAoE.s 			page 5


 236 004a 22F00102 		bic	r2, r2, #1
 237 004e 1A62     		str	r2, [r3, #32]
 238 0050 9A69     		ldr	r2, [r3, #24]
 239 0052 22F0F002 		bic	r2, r2, #240
 240 0056 42EA0112 		orr	r2, r2, r1, lsl #4
 241 005a 9A61     		str	r2, [r3, #24]
 242 005c 1862     		str	r0, [r3, #32]
 243 005e 30BD     		pop	{r4, r5, pc}
 244              	.L25:
 245 0060 8868     		ldr	r0, [r1, #8]
 246 0062 0D69     		ldr	r5, [r1, #16]
 247 0064 196A     		ldr	r1, [r3, #32]
 248 0066 1C6A     		ldr	r4, [r3, #32]
 249 0068 21F00A01 		bic	r1, r1, #10
 250 006c 24F00104 		bic	r4, r4, #1
 251 0070 1C62     		str	r4, [r3, #32]
 252 0072 9A69     		ldr	r2, [r3, #24]
 253 0074 0143     		orrs	r1, r1, r0
 254 0076 22F0F002 		bic	r2, r2, #240
 255 007a 42EA0512 		orr	r2, r2, r5, lsl #4
 256 007e 9A61     		str	r2, [r3, #24]
 257 0080 1962     		str	r1, [r3, #32]
 258 0082 30BD     		pop	{r4, r5, pc}
 259              	.L28:
 260 0084 186A     		ldr	r0, [r3, #32]
 261 0086 8C68     		ldr	r4, [r1, #8]
 262 0088 20F01000 		bic	r0, r0, #16
 263 008c 0D69     		ldr	r5, [r1, #16]
 264 008e 1862     		str	r0, [r3, #32]
 265 0090 9969     		ldr	r1, [r3, #24]
 266 0092 1A6A     		ldr	r2, [r3, #32]
 267 0094 21F47041 		bic	r1, r1, #61440
 268 0098 22F0A002 		bic	r2, r2, #160
 269 009c 41EA0531 		orr	r1, r1, r5, lsl #12
 270 00a0 42EA0412 		orr	r2, r2, r4, lsl #4
 271 00a4 9961     		str	r1, [r3, #24]
 272 00a6 1A62     		str	r2, [r3, #32]
 273              	.L23:
 274 00a8 30BD     		pop	{r4, r5, pc}
 276              		.section	.text.HAL_TIM_Base_MspInit,"ax",%progbits
 277              		.align	1
 278              		.weak	HAL_TIM_Base_MspInit
 279              		.thumb
 280              		.thumb_func
 282              	HAL_TIM_Base_MspInit:
 283              		@ args = 0, pretend = 0, frame = 0
 284              		@ frame_needed = 0, uses_anonymous_args = 0
 285              		@ link register save eliminated.
 286 0000 7047     		bx	lr
 288              		.section	.text.HAL_TIM_Base_MspDeInit,"ax",%progbits
 289              		.align	1
 290              		.weak	HAL_TIM_Base_MspDeInit
 291              		.thumb
 292              		.thumb_func
 294              	HAL_TIM_Base_MspDeInit:
 295              		@ args = 0, pretend = 0, frame = 0
 296              		@ frame_needed = 0, uses_anonymous_args = 0
ARM GAS  /tmp/cciUsAoE.s 			page 6


 297              		@ link register save eliminated.
 298 0000 7047     		bx	lr
 300              		.section	.text.HAL_TIM_Base_DeInit,"ax",%progbits
 301              		.align	1
 302              		.global	HAL_TIM_Base_DeInit
 303              		.thumb
 304              		.thumb_func
 306              	HAL_TIM_Base_DeInit:
 307              		@ args = 0, pretend = 0, frame = 0
 308              		@ frame_needed = 0, uses_anonymous_args = 0
 309 0000 41F21112 		movw	r2, #4369
 310 0004 0223     		movs	r3, #2
 311 0006 10B5     		push	{r4, lr}
 312 0008 80F83930 		strb	r3, [r0, #57]
 313 000c 0368     		ldr	r3, [r0]
 314 000e 0446     		mov	r4, r0
 315 0010 196A     		ldr	r1, [r3, #32]
 316 0012 0A40     		ands	r2, r2, r1
 317 0014 42B9     		cbnz	r2, .L33
 318 0016 40F24442 		movw	r2, #1092
 319 001a 196A     		ldr	r1, [r3, #32]
 320 001c 0A40     		ands	r2, r2, r1
 321 001e 1AB9     		cbnz	r2, .L33
 322 0020 1A68     		ldr	r2, [r3]
 323 0022 22F00102 		bic	r2, r2, #1
 324 0026 1A60     		str	r2, [r3]
 325              	.L33:
 326 0028 2046     		mov	r0, r4
 327 002a FFF7FEFF 		bl	HAL_TIM_Base_MspDeInit
 328 002e 0020     		movs	r0, #0
 329 0030 84F83900 		strb	r0, [r4, #57]
 330 0034 84F83800 		strb	r0, [r4, #56]
 331 0038 10BD     		pop	{r4, pc}
 333              		.section	.text.HAL_TIM_Base_Start,"ax",%progbits
 334              		.align	1
 335              		.global	HAL_TIM_Base_Start
 336              		.thumb
 337              		.thumb_func
 339              	HAL_TIM_Base_Start:
 340              		@ args = 0, pretend = 0, frame = 0
 341              		@ frame_needed = 0, uses_anonymous_args = 0
 342              		@ link register save eliminated.
 343 0000 0268     		ldr	r2, [r0]
 344 0002 0223     		movs	r3, #2
 345 0004 80F83930 		strb	r3, [r0, #57]
 346 0008 1368     		ldr	r3, [r2]
 347 000a 43F00103 		orr	r3, r3, #1
 348 000e 1360     		str	r3, [r2]
 349 0010 0123     		movs	r3, #1
 350 0012 80F83930 		strb	r3, [r0, #57]
 351 0016 0020     		movs	r0, #0
 352 0018 7047     		bx	lr
 354              		.section	.text.HAL_TIM_Base_Stop,"ax",%progbits
 355              		.align	1
 356              		.global	HAL_TIM_Base_Stop
 357              		.thumb
 358              		.thumb_func
ARM GAS  /tmp/cciUsAoE.s 			page 7


 360              	HAL_TIM_Base_Stop:
 361              		@ args = 0, pretend = 0, frame = 0
 362              		@ frame_needed = 0, uses_anonymous_args = 0
 363              		@ link register save eliminated.
 364 0000 41F21112 		movw	r2, #4369
 365 0004 0223     		movs	r3, #2
 366 0006 80F83930 		strb	r3, [r0, #57]
 367 000a 0368     		ldr	r3, [r0]
 368 000c 196A     		ldr	r1, [r3, #32]
 369 000e 0A40     		ands	r2, r2, r1
 370 0010 42B9     		cbnz	r2, .L36
 371 0012 40F24442 		movw	r2, #1092
 372 0016 196A     		ldr	r1, [r3, #32]
 373 0018 0A40     		ands	r2, r2, r1
 374 001a 1AB9     		cbnz	r2, .L36
 375 001c 1A68     		ldr	r2, [r3]
 376 001e 22F00102 		bic	r2, r2, #1
 377 0022 1A60     		str	r2, [r3]
 378              	.L36:
 379 0024 0123     		movs	r3, #1
 380 0026 80F83930 		strb	r3, [r0, #57]
 381 002a 0020     		movs	r0, #0
 382 002c 7047     		bx	lr
 384              		.section	.text.HAL_TIM_Base_Start_IT,"ax",%progbits
 385              		.align	1
 386              		.global	HAL_TIM_Base_Start_IT
 387              		.thumb
 388              		.thumb_func
 390              	HAL_TIM_Base_Start_IT:
 391              		@ args = 0, pretend = 0, frame = 0
 392              		@ frame_needed = 0, uses_anonymous_args = 0
 393              		@ link register save eliminated.
 394 0000 0368     		ldr	r3, [r0]
 395 0002 0020     		movs	r0, #0
 396 0004 DA68     		ldr	r2, [r3, #12]
 397 0006 42F00102 		orr	r2, r2, #1
 398 000a DA60     		str	r2, [r3, #12]
 399 000c 1A68     		ldr	r2, [r3]
 400 000e 42F00102 		orr	r2, r2, #1
 401 0012 1A60     		str	r2, [r3]
 402 0014 7047     		bx	lr
 404              		.section	.text.HAL_TIM_Base_Stop_IT,"ax",%progbits
 405              		.align	1
 406              		.global	HAL_TIM_Base_Stop_IT
 407              		.thumb
 408              		.thumb_func
 410              	HAL_TIM_Base_Stop_IT:
 411              		@ args = 0, pretend = 0, frame = 0
 412              		@ frame_needed = 0, uses_anonymous_args = 0
 413              		@ link register save eliminated.
 414 0000 0368     		ldr	r3, [r0]
 415 0002 DA68     		ldr	r2, [r3, #12]
 416 0004 22F00102 		bic	r2, r2, #1
 417 0008 DA60     		str	r2, [r3, #12]
 418 000a 41F21112 		movw	r2, #4369
 419 000e 196A     		ldr	r1, [r3, #32]
 420 0010 0A40     		ands	r2, r2, r1
ARM GAS  /tmp/cciUsAoE.s 			page 8


 421 0012 42B9     		cbnz	r2, .L39
 422 0014 40F24442 		movw	r2, #1092
 423 0018 196A     		ldr	r1, [r3, #32]
 424 001a 0A40     		ands	r2, r2, r1
 425 001c 1AB9     		cbnz	r2, .L39
 426 001e 1A68     		ldr	r2, [r3]
 427 0020 22F00102 		bic	r2, r2, #1
 428 0024 1A60     		str	r2, [r3]
 429              	.L39:
 430 0026 0020     		movs	r0, #0
 431 0028 7047     		bx	lr
 433              		.section	.text.HAL_TIM_Base_Start_DMA,"ax",%progbits
 434              		.align	1
 435              		.global	HAL_TIM_Base_Start_DMA
 436              		.thumb
 437              		.thumb_func
 439              	HAL_TIM_Base_Start_DMA:
 440              		@ args = 0, pretend = 0, frame = 0
 441              		@ frame_needed = 0, uses_anonymous_args = 0
 442 0000 10B5     		push	{r4, lr}
 443 0002 0446     		mov	r4, r0
 444 0004 90F83900 		ldrb	r0, [r0, #57]	@ zero_extendqisi2
 445 0008 1346     		mov	r3, r2
 446 000a C0B2     		uxtb	r0, r0
 447 000c 0228     		cmp	r0, #2
 448 000e 1CD0     		beq	.L41
 449 0010 94F83900 		ldrb	r0, [r4, #57]	@ zero_extendqisi2
 450 0014 C0B2     		uxtb	r0, r0
 451 0016 0128     		cmp	r0, #1
 452 0018 04D1     		bne	.L42
 453 001a 01B9     		cbnz	r1, .L43
 454 001c AAB9     		cbnz	r2, .L41
 455              	.L43:
 456 001e 0222     		movs	r2, #2
 457 0020 84F83920 		strb	r2, [r4, #57]
 458              	.L42:
 459 0024 E069     		ldr	r0, [r4, #28]
 460 0026 094A     		ldr	r2, .L46
 461 0028 8262     		str	r2, [r0, #40]
 462 002a 094A     		ldr	r2, .L46+4
 463 002c 0263     		str	r2, [r0, #48]
 464 002e 2268     		ldr	r2, [r4]
 465 0030 2C32     		adds	r2, r2, #44
 466 0032 FFF7FEFF 		bl	HAL_DMA_Start_IT
 467 0036 2368     		ldr	r3, [r4]
 468 0038 0020     		movs	r0, #0
 469 003a DA68     		ldr	r2, [r3, #12]
 470 003c 42F48072 		orr	r2, r2, #256
 471 0040 DA60     		str	r2, [r3, #12]
 472 0042 1A68     		ldr	r2, [r3]
 473 0044 42F00102 		orr	r2, r2, #1
 474 0048 1A60     		str	r2, [r3]
 475              	.L41:
 476 004a 10BD     		pop	{r4, pc}
 477              	.L47:
 478              		.align	2
 479              	.L46:
ARM GAS  /tmp/cciUsAoE.s 			page 9


 480 004c 00000000 		.word	TIM_DMAPeriodElapsedCplt
 481 0050 00000000 		.word	TIM_DMAError
 483              		.section	.text.HAL_TIM_Base_Stop_DMA,"ax",%progbits
 484              		.align	1
 485              		.global	HAL_TIM_Base_Stop_DMA
 486              		.thumb
 487              		.thumb_func
 489              	HAL_TIM_Base_Stop_DMA:
 490              		@ args = 0, pretend = 0, frame = 0
 491              		@ frame_needed = 0, uses_anonymous_args = 0
 492              		@ link register save eliminated.
 493 0000 0368     		ldr	r3, [r0]
 494 0002 DA68     		ldr	r2, [r3, #12]
 495 0004 22F48072 		bic	r2, r2, #256
 496 0008 DA60     		str	r2, [r3, #12]
 497 000a 41F21112 		movw	r2, #4369
 498 000e 196A     		ldr	r1, [r3, #32]
 499 0010 0A40     		ands	r2, r2, r1
 500 0012 42B9     		cbnz	r2, .L49
 501 0014 40F24442 		movw	r2, #1092
 502 0018 196A     		ldr	r1, [r3, #32]
 503 001a 0A40     		ands	r2, r2, r1
 504 001c 1AB9     		cbnz	r2, .L49
 505 001e 1A68     		ldr	r2, [r3]
 506 0020 22F00102 		bic	r2, r2, #1
 507 0024 1A60     		str	r2, [r3]
 508              	.L49:
 509 0026 0123     		movs	r3, #1
 510 0028 80F83930 		strb	r3, [r0, #57]
 511 002c 0020     		movs	r0, #0
 512 002e 7047     		bx	lr
 514              		.section	.text.HAL_TIM_OC_MspInit,"ax",%progbits
 515              		.align	1
 516              		.weak	HAL_TIM_OC_MspInit
 517              		.thumb
 518              		.thumb_func
 520              	HAL_TIM_OC_MspInit:
 521              		@ args = 0, pretend = 0, frame = 0
 522              		@ frame_needed = 0, uses_anonymous_args = 0
 523              		@ link register save eliminated.
 524 0000 7047     		bx	lr
 526              		.section	.text.HAL_TIM_OC_MspDeInit,"ax",%progbits
 527              		.align	1
 528              		.weak	HAL_TIM_OC_MspDeInit
 529              		.thumb
 530              		.thumb_func
 532              	HAL_TIM_OC_MspDeInit:
 533              		@ args = 0, pretend = 0, frame = 0
 534              		@ frame_needed = 0, uses_anonymous_args = 0
 535              		@ link register save eliminated.
 536 0000 7047     		bx	lr
 538              		.section	.text.HAL_TIM_OC_DeInit,"ax",%progbits
 539              		.align	1
 540              		.global	HAL_TIM_OC_DeInit
 541              		.thumb
 542              		.thumb_func
 544              	HAL_TIM_OC_DeInit:
ARM GAS  /tmp/cciUsAoE.s 			page 10


 545              		@ args = 0, pretend = 0, frame = 0
 546              		@ frame_needed = 0, uses_anonymous_args = 0
 547 0000 41F21112 		movw	r2, #4369
 548 0004 0223     		movs	r3, #2
 549 0006 10B5     		push	{r4, lr}
 550 0008 80F83930 		strb	r3, [r0, #57]
 551 000c 0368     		ldr	r3, [r0]
 552 000e 0446     		mov	r4, r0
 553 0010 196A     		ldr	r1, [r3, #32]
 554 0012 0A40     		ands	r2, r2, r1
 555 0014 42B9     		cbnz	r2, .L53
 556 0016 40F24442 		movw	r2, #1092
 557 001a 196A     		ldr	r1, [r3, #32]
 558 001c 0A40     		ands	r2, r2, r1
 559 001e 1AB9     		cbnz	r2, .L53
 560 0020 1A68     		ldr	r2, [r3]
 561 0022 22F00102 		bic	r2, r2, #1
 562 0026 1A60     		str	r2, [r3]
 563              	.L53:
 564 0028 2046     		mov	r0, r4
 565 002a FFF7FEFF 		bl	HAL_TIM_OC_MspDeInit
 566 002e 0020     		movs	r0, #0
 567 0030 84F83900 		strb	r0, [r4, #57]
 568 0034 84F83800 		strb	r0, [r4, #56]
 569 0038 10BD     		pop	{r4, pc}
 571              		.section	.text.HAL_TIM_PWM_MspInit,"ax",%progbits
 572              		.align	1
 573              		.weak	HAL_TIM_PWM_MspInit
 574              		.thumb
 575              		.thumb_func
 577              	HAL_TIM_PWM_MspInit:
 578              		@ args = 0, pretend = 0, frame = 0
 579              		@ frame_needed = 0, uses_anonymous_args = 0
 580              		@ link register save eliminated.
 581 0000 7047     		bx	lr
 583              		.section	.text.HAL_TIM_PWM_MspDeInit,"ax",%progbits
 584              		.align	1
 585              		.weak	HAL_TIM_PWM_MspDeInit
 586              		.thumb
 587              		.thumb_func
 589              	HAL_TIM_PWM_MspDeInit:
 590              		@ args = 0, pretend = 0, frame = 0
 591              		@ frame_needed = 0, uses_anonymous_args = 0
 592              		@ link register save eliminated.
 593 0000 7047     		bx	lr
 595              		.section	.text.HAL_TIM_PWM_DeInit,"ax",%progbits
 596              		.align	1
 597              		.global	HAL_TIM_PWM_DeInit
 598              		.thumb
 599              		.thumb_func
 601              	HAL_TIM_PWM_DeInit:
 602              		@ args = 0, pretend = 0, frame = 0
 603              		@ frame_needed = 0, uses_anonymous_args = 0
 604 0000 41F21112 		movw	r2, #4369
 605 0004 0223     		movs	r3, #2
 606 0006 10B5     		push	{r4, lr}
 607 0008 80F83930 		strb	r3, [r0, #57]
ARM GAS  /tmp/cciUsAoE.s 			page 11


 608 000c 0368     		ldr	r3, [r0]
 609 000e 0446     		mov	r4, r0
 610 0010 196A     		ldr	r1, [r3, #32]
 611 0012 0A40     		ands	r2, r2, r1
 612 0014 42B9     		cbnz	r2, .L57
 613 0016 40F24442 		movw	r2, #1092
 614 001a 196A     		ldr	r1, [r3, #32]
 615 001c 0A40     		ands	r2, r2, r1
 616 001e 1AB9     		cbnz	r2, .L57
 617 0020 1A68     		ldr	r2, [r3]
 618 0022 22F00102 		bic	r2, r2, #1
 619 0026 1A60     		str	r2, [r3]
 620              	.L57:
 621 0028 2046     		mov	r0, r4
 622 002a FFF7FEFF 		bl	HAL_TIM_PWM_MspDeInit
 623 002e 0020     		movs	r0, #0
 624 0030 84F83900 		strb	r0, [r4, #57]
 625 0034 84F83800 		strb	r0, [r4, #56]
 626 0038 10BD     		pop	{r4, pc}
 628              		.section	.text.HAL_TIM_IC_MspInit,"ax",%progbits
 629              		.align	1
 630              		.weak	HAL_TIM_IC_MspInit
 631              		.thumb
 632              		.thumb_func
 634              	HAL_TIM_IC_MspInit:
 635              		@ args = 0, pretend = 0, frame = 0
 636              		@ frame_needed = 0, uses_anonymous_args = 0
 637              		@ link register save eliminated.
 638 0000 7047     		bx	lr
 640              		.section	.text.HAL_TIM_IC_MspDeInit,"ax",%progbits
 641              		.align	1
 642              		.weak	HAL_TIM_IC_MspDeInit
 643              		.thumb
 644              		.thumb_func
 646              	HAL_TIM_IC_MspDeInit:
 647              		@ args = 0, pretend = 0, frame = 0
 648              		@ frame_needed = 0, uses_anonymous_args = 0
 649              		@ link register save eliminated.
 650 0000 7047     		bx	lr
 652              		.section	.text.HAL_TIM_IC_DeInit,"ax",%progbits
 653              		.align	1
 654              		.global	HAL_TIM_IC_DeInit
 655              		.thumb
 656              		.thumb_func
 658              	HAL_TIM_IC_DeInit:
 659              		@ args = 0, pretend = 0, frame = 0
 660              		@ frame_needed = 0, uses_anonymous_args = 0
 661 0000 41F21112 		movw	r2, #4369
 662 0004 0223     		movs	r3, #2
 663 0006 10B5     		push	{r4, lr}
 664 0008 80F83930 		strb	r3, [r0, #57]
 665 000c 0368     		ldr	r3, [r0]
 666 000e 0446     		mov	r4, r0
 667 0010 196A     		ldr	r1, [r3, #32]
 668 0012 0A40     		ands	r2, r2, r1
 669 0014 42B9     		cbnz	r2, .L61
 670 0016 40F24442 		movw	r2, #1092
ARM GAS  /tmp/cciUsAoE.s 			page 12


 671 001a 196A     		ldr	r1, [r3, #32]
 672 001c 0A40     		ands	r2, r2, r1
 673 001e 1AB9     		cbnz	r2, .L61
 674 0020 1A68     		ldr	r2, [r3]
 675 0022 22F00102 		bic	r2, r2, #1
 676 0026 1A60     		str	r2, [r3]
 677              	.L61:
 678 0028 2046     		mov	r0, r4
 679 002a FFF7FEFF 		bl	HAL_TIM_IC_MspDeInit
 680 002e 0020     		movs	r0, #0
 681 0030 84F83900 		strb	r0, [r4, #57]
 682 0034 84F83800 		strb	r0, [r4, #56]
 683 0038 10BD     		pop	{r4, pc}
 685              		.section	.text.HAL_TIM_OnePulse_MspInit,"ax",%progbits
 686              		.align	1
 687              		.weak	HAL_TIM_OnePulse_MspInit
 688              		.thumb
 689              		.thumb_func
 691              	HAL_TIM_OnePulse_MspInit:
 692              		@ args = 0, pretend = 0, frame = 0
 693              		@ frame_needed = 0, uses_anonymous_args = 0
 694              		@ link register save eliminated.
 695 0000 7047     		bx	lr
 697              		.section	.text.HAL_TIM_OnePulse_MspDeInit,"ax",%progbits
 698              		.align	1
 699              		.weak	HAL_TIM_OnePulse_MspDeInit
 700              		.thumb
 701              		.thumb_func
 703              	HAL_TIM_OnePulse_MspDeInit:
 704              		@ args = 0, pretend = 0, frame = 0
 705              		@ frame_needed = 0, uses_anonymous_args = 0
 706              		@ link register save eliminated.
 707 0000 7047     		bx	lr
 709              		.section	.text.HAL_TIM_OnePulse_DeInit,"ax",%progbits
 710              		.align	1
 711              		.global	HAL_TIM_OnePulse_DeInit
 712              		.thumb
 713              		.thumb_func
 715              	HAL_TIM_OnePulse_DeInit:
 716              		@ args = 0, pretend = 0, frame = 0
 717              		@ frame_needed = 0, uses_anonymous_args = 0
 718 0000 41F21112 		movw	r2, #4369
 719 0004 0223     		movs	r3, #2
 720 0006 10B5     		push	{r4, lr}
 721 0008 80F83930 		strb	r3, [r0, #57]
 722 000c 0368     		ldr	r3, [r0]
 723 000e 0446     		mov	r4, r0
 724 0010 196A     		ldr	r1, [r3, #32]
 725 0012 0A40     		ands	r2, r2, r1
 726 0014 42B9     		cbnz	r2, .L65
 727 0016 40F24442 		movw	r2, #1092
 728 001a 196A     		ldr	r1, [r3, #32]
 729 001c 0A40     		ands	r2, r2, r1
 730 001e 1AB9     		cbnz	r2, .L65
 731 0020 1A68     		ldr	r2, [r3]
 732 0022 22F00102 		bic	r2, r2, #1
 733 0026 1A60     		str	r2, [r3]
ARM GAS  /tmp/cciUsAoE.s 			page 13


 734              	.L65:
 735 0028 2046     		mov	r0, r4
 736 002a FFF7FEFF 		bl	HAL_TIM_OnePulse_MspDeInit
 737 002e 0020     		movs	r0, #0
 738 0030 84F83900 		strb	r0, [r4, #57]
 739 0034 84F83800 		strb	r0, [r4, #56]
 740 0038 10BD     		pop	{r4, pc}
 742              		.section	.text.HAL_TIM_OnePulse_Start,"ax",%progbits
 743              		.align	1
 744              		.global	HAL_TIM_OnePulse_Start
 745              		.thumb
 746              		.thumb_func
 748              	HAL_TIM_OnePulse_Start:
 749              		@ args = 0, pretend = 0, frame = 0
 750              		@ frame_needed = 0, uses_anonymous_args = 0
 751              		@ link register save eliminated.
 752 0000 0368     		ldr	r3, [r0]
 753 0002 1A6A     		ldr	r2, [r3, #32]
 754 0004 22F00102 		bic	r2, r2, #1
 755 0008 1A62     		str	r2, [r3, #32]
 756 000a 1A6A     		ldr	r2, [r3, #32]
 757 000c 42F00102 		orr	r2, r2, #1
 758 0010 1A62     		str	r2, [r3, #32]
 759 0012 1A6A     		ldr	r2, [r3, #32]
 760 0014 22F01002 		bic	r2, r2, #16
 761 0018 1A62     		str	r2, [r3, #32]
 762 001a 1A6A     		ldr	r2, [r3, #32]
 763 001c 42F01002 		orr	r2, r2, #16
 764 0020 1A62     		str	r2, [r3, #32]
 765 0022 0A4A     		ldr	r2, .L70
 766 0024 9342     		cmp	r3, r2
 767 0026 0BD0     		beq	.L67
 768 0028 02F5A052 		add	r2, r2, #5120
 769 002c 9342     		cmp	r3, r2
 770 002e 07D0     		beq	.L67
 771 0030 02F58062 		add	r2, r2, #1024
 772 0034 9342     		cmp	r3, r2
 773 0036 03D0     		beq	.L67
 774 0038 02F58062 		add	r2, r2, #1024
 775 003c 9342     		cmp	r3, r2
 776 003e 03D1     		bne	.L69
 777              	.L67:
 778 0040 5A6C     		ldr	r2, [r3, #68]
 779 0042 42F40042 		orr	r2, r2, #32768
 780 0046 5A64     		str	r2, [r3, #68]
 781              	.L69:
 782 0048 0020     		movs	r0, #0
 783 004a 7047     		bx	lr
 784              	.L71:
 785              		.align	2
 786              	.L70:
 787 004c 002C0140 		.word	1073818624
 789              		.section	.text.HAL_TIM_OnePulse_Stop,"ax",%progbits
 790              		.align	1
 791              		.global	HAL_TIM_OnePulse_Stop
 792              		.thumb
 793              		.thumb_func
ARM GAS  /tmp/cciUsAoE.s 			page 14


 795              	HAL_TIM_OnePulse_Stop:
 796              		@ args = 0, pretend = 0, frame = 0
 797              		@ frame_needed = 0, uses_anonymous_args = 0
 798              		@ link register save eliminated.
 799 0000 0368     		ldr	r3, [r0]
 800 0002 1A6A     		ldr	r2, [r3, #32]
 801 0004 22F00102 		bic	r2, r2, #1
 802 0008 1A62     		str	r2, [r3, #32]
 803 000a 1A6A     		ldr	r2, [r3, #32]
 804 000c 1A62     		str	r2, [r3, #32]
 805 000e 1A6A     		ldr	r2, [r3, #32]
 806 0010 22F01002 		bic	r2, r2, #16
 807 0014 1A62     		str	r2, [r3, #32]
 808 0016 1A6A     		ldr	r2, [r3, #32]
 809 0018 1A62     		str	r2, [r3, #32]
 810 001a 164A     		ldr	r2, .L78
 811 001c 9342     		cmp	r3, r2
 812 001e 0BD0     		beq	.L73
 813 0020 02F5A052 		add	r2, r2, #5120
 814 0024 9342     		cmp	r3, r2
 815 0026 07D0     		beq	.L73
 816 0028 02F58062 		add	r2, r2, #1024
 817 002c 9342     		cmp	r3, r2
 818 002e 03D0     		beq	.L73
 819 0030 02F58062 		add	r2, r2, #1024
 820 0034 9342     		cmp	r3, r2
 821 0036 0DD1     		bne	.L74
 822              	.L73:
 823 0038 41F21112 		movw	r2, #4369
 824 003c 196A     		ldr	r1, [r3, #32]
 825 003e 0A40     		ands	r2, r2, r1
 826 0040 42B9     		cbnz	r2, .L74
 827 0042 40F24442 		movw	r2, #1092
 828 0046 196A     		ldr	r1, [r3, #32]
 829 0048 0A40     		ands	r2, r2, r1
 830 004a 1AB9     		cbnz	r2, .L74
 831 004c 5A6C     		ldr	r2, [r3, #68]
 832 004e 22F40042 		bic	r2, r2, #32768
 833 0052 5A64     		str	r2, [r3, #68]
 834              	.L74:
 835 0054 41F21112 		movw	r2, #4369
 836 0058 196A     		ldr	r1, [r3, #32]
 837 005a 0A40     		ands	r2, r2, r1
 838 005c 42B9     		cbnz	r2, .L77
 839 005e 40F24442 		movw	r2, #1092
 840 0062 196A     		ldr	r1, [r3, #32]
 841 0064 0A40     		ands	r2, r2, r1
 842 0066 1AB9     		cbnz	r2, .L77
 843 0068 1A68     		ldr	r2, [r3]
 844 006a 22F00102 		bic	r2, r2, #1
 845 006e 1A60     		str	r2, [r3]
 846              	.L77:
 847 0070 0020     		movs	r0, #0
 848 0072 7047     		bx	lr
 849              	.L79:
 850              		.align	2
 851              	.L78:
ARM GAS  /tmp/cciUsAoE.s 			page 15


 852 0074 002C0140 		.word	1073818624
 854              		.section	.text.HAL_TIM_OnePulse_Start_IT,"ax",%progbits
 855              		.align	1
 856              		.global	HAL_TIM_OnePulse_Start_IT
 857              		.thumb
 858              		.thumb_func
 860              	HAL_TIM_OnePulse_Start_IT:
 861              		@ args = 0, pretend = 0, frame = 0
 862              		@ frame_needed = 0, uses_anonymous_args = 0
 863              		@ link register save eliminated.
 864 0000 0368     		ldr	r3, [r0]
 865 0002 DA68     		ldr	r2, [r3, #12]
 866 0004 42F00202 		orr	r2, r2, #2
 867 0008 DA60     		str	r2, [r3, #12]
 868 000a DA68     		ldr	r2, [r3, #12]
 869 000c 42F00402 		orr	r2, r2, #4
 870 0010 DA60     		str	r2, [r3, #12]
 871 0012 1A6A     		ldr	r2, [r3, #32]
 872 0014 22F00102 		bic	r2, r2, #1
 873 0018 1A62     		str	r2, [r3, #32]
 874 001a 1A6A     		ldr	r2, [r3, #32]
 875 001c 42F00102 		orr	r2, r2, #1
 876 0020 1A62     		str	r2, [r3, #32]
 877 0022 1A6A     		ldr	r2, [r3, #32]
 878 0024 22F01002 		bic	r2, r2, #16
 879 0028 1A62     		str	r2, [r3, #32]
 880 002a 1A6A     		ldr	r2, [r3, #32]
 881 002c 42F01002 		orr	r2, r2, #16
 882 0030 1A62     		str	r2, [r3, #32]
 883 0032 0A4A     		ldr	r2, .L84
 884 0034 9342     		cmp	r3, r2
 885 0036 0BD0     		beq	.L81
 886 0038 02F5A052 		add	r2, r2, #5120
 887 003c 9342     		cmp	r3, r2
 888 003e 07D0     		beq	.L81
 889 0040 02F58062 		add	r2, r2, #1024
 890 0044 9342     		cmp	r3, r2
 891 0046 03D0     		beq	.L81
 892 0048 02F58062 		add	r2, r2, #1024
 893 004c 9342     		cmp	r3, r2
 894 004e 03D1     		bne	.L83
 895              	.L81:
 896 0050 5A6C     		ldr	r2, [r3, #68]
 897 0052 42F40042 		orr	r2, r2, #32768
 898 0056 5A64     		str	r2, [r3, #68]
 899              	.L83:
 900 0058 0020     		movs	r0, #0
 901 005a 7047     		bx	lr
 902              	.L85:
 903              		.align	2
 904              	.L84:
 905 005c 002C0140 		.word	1073818624
 907              		.section	.text.HAL_TIM_OnePulse_Stop_IT,"ax",%progbits
 908              		.align	1
 909              		.global	HAL_TIM_OnePulse_Stop_IT
 910              		.thumb
 911              		.thumb_func
ARM GAS  /tmp/cciUsAoE.s 			page 16


 913              	HAL_TIM_OnePulse_Stop_IT:
 914              		@ args = 0, pretend = 0, frame = 0
 915              		@ frame_needed = 0, uses_anonymous_args = 0
 916              		@ link register save eliminated.
 917 0000 0368     		ldr	r3, [r0]
 918 0002 DA68     		ldr	r2, [r3, #12]
 919 0004 22F00202 		bic	r2, r2, #2
 920 0008 DA60     		str	r2, [r3, #12]
 921 000a DA68     		ldr	r2, [r3, #12]
 922 000c 22F00402 		bic	r2, r2, #4
 923 0010 DA60     		str	r2, [r3, #12]
 924 0012 1A6A     		ldr	r2, [r3, #32]
 925 0014 22F00102 		bic	r2, r2, #1
 926 0018 1A62     		str	r2, [r3, #32]
 927 001a 1A6A     		ldr	r2, [r3, #32]
 928 001c 1A62     		str	r2, [r3, #32]
 929 001e 1A6A     		ldr	r2, [r3, #32]
 930 0020 22F01002 		bic	r2, r2, #16
 931 0024 1A62     		str	r2, [r3, #32]
 932 0026 1A6A     		ldr	r2, [r3, #32]
 933 0028 1A62     		str	r2, [r3, #32]
 934 002a 164A     		ldr	r2, .L92
 935 002c 9342     		cmp	r3, r2
 936 002e 0BD0     		beq	.L87
 937 0030 02F5A052 		add	r2, r2, #5120
 938 0034 9342     		cmp	r3, r2
 939 0036 07D0     		beq	.L87
 940 0038 02F58062 		add	r2, r2, #1024
 941 003c 9342     		cmp	r3, r2
 942 003e 03D0     		beq	.L87
 943 0040 02F58062 		add	r2, r2, #1024
 944 0044 9342     		cmp	r3, r2
 945 0046 0DD1     		bne	.L88
 946              	.L87:
 947 0048 41F21112 		movw	r2, #4369
 948 004c 196A     		ldr	r1, [r3, #32]
 949 004e 0A40     		ands	r2, r2, r1
 950 0050 42B9     		cbnz	r2, .L88
 951 0052 40F24442 		movw	r2, #1092
 952 0056 196A     		ldr	r1, [r3, #32]
 953 0058 0A40     		ands	r2, r2, r1
 954 005a 1AB9     		cbnz	r2, .L88
 955 005c 5A6C     		ldr	r2, [r3, #68]
 956 005e 22F40042 		bic	r2, r2, #32768
 957 0062 5A64     		str	r2, [r3, #68]
 958              	.L88:
 959 0064 41F21112 		movw	r2, #4369
 960 0068 196A     		ldr	r1, [r3, #32]
 961 006a 0A40     		ands	r2, r2, r1
 962 006c 42B9     		cbnz	r2, .L91
 963 006e 40F24442 		movw	r2, #1092
 964 0072 196A     		ldr	r1, [r3, #32]
 965 0074 0A40     		ands	r2, r2, r1
 966 0076 1AB9     		cbnz	r2, .L91
 967 0078 1A68     		ldr	r2, [r3]
 968 007a 22F00102 		bic	r2, r2, #1
 969 007e 1A60     		str	r2, [r3]
ARM GAS  /tmp/cciUsAoE.s 			page 17


 970              	.L91:
 971 0080 0020     		movs	r0, #0
 972 0082 7047     		bx	lr
 973              	.L93:
 974              		.align	2
 975              	.L92:
 976 0084 002C0140 		.word	1073818624
 978              		.section	.text.HAL_TIM_Encoder_MspInit,"ax",%progbits
 979              		.align	1
 980              		.weak	HAL_TIM_Encoder_MspInit
 981              		.thumb
 982              		.thumb_func
 984              	HAL_TIM_Encoder_MspInit:
 985              		@ args = 0, pretend = 0, frame = 0
 986              		@ frame_needed = 0, uses_anonymous_args = 0
 987              		@ link register save eliminated.
 988 0000 7047     		bx	lr
 990              		.section	.text.HAL_TIM_Encoder_MspDeInit,"ax",%progbits
 991              		.align	1
 992              		.weak	HAL_TIM_Encoder_MspDeInit
 993              		.thumb
 994              		.thumb_func
 996              	HAL_TIM_Encoder_MspDeInit:
 997              		@ args = 0, pretend = 0, frame = 0
 998              		@ frame_needed = 0, uses_anonymous_args = 0
 999              		@ link register save eliminated.
 1000 0000 7047     		bx	lr
 1002              		.section	.text.HAL_TIM_Encoder_DeInit,"ax",%progbits
 1003              		.align	1
 1004              		.global	HAL_TIM_Encoder_DeInit
 1005              		.thumb
 1006              		.thumb_func
 1008              	HAL_TIM_Encoder_DeInit:
 1009              		@ args = 0, pretend = 0, frame = 0
 1010              		@ frame_needed = 0, uses_anonymous_args = 0
 1011 0000 41F21112 		movw	r2, #4369
 1012 0004 0223     		movs	r3, #2
 1013 0006 10B5     		push	{r4, lr}
 1014 0008 80F83930 		strb	r3, [r0, #57]
 1015 000c 0368     		ldr	r3, [r0]
 1016 000e 0446     		mov	r4, r0
 1017 0010 196A     		ldr	r1, [r3, #32]
 1018 0012 0A40     		ands	r2, r2, r1
 1019 0014 42B9     		cbnz	r2, .L97
 1020 0016 40F24442 		movw	r2, #1092
 1021 001a 196A     		ldr	r1, [r3, #32]
 1022 001c 0A40     		ands	r2, r2, r1
 1023 001e 1AB9     		cbnz	r2, .L97
 1024 0020 1A68     		ldr	r2, [r3]
 1025 0022 22F00102 		bic	r2, r2, #1
 1026 0026 1A60     		str	r2, [r3]
 1027              	.L97:
 1028 0028 2046     		mov	r0, r4
 1029 002a FFF7FEFF 		bl	HAL_TIM_Encoder_MspDeInit
 1030 002e 0020     		movs	r0, #0
 1031 0030 84F83900 		strb	r0, [r4, #57]
 1032 0034 84F83800 		strb	r0, [r4, #56]
ARM GAS  /tmp/cciUsAoE.s 			page 18


 1033 0038 10BD     		pop	{r4, pc}
 1035              		.section	.text.HAL_TIM_Encoder_Start,"ax",%progbits
 1036              		.align	1
 1037              		.global	HAL_TIM_Encoder_Start
 1038              		.thumb
 1039              		.thumb_func
 1041              	HAL_TIM_Encoder_Start:
 1042              		@ args = 0, pretend = 0, frame = 0
 1043              		@ frame_needed = 0, uses_anonymous_args = 0
 1044              		@ link register save eliminated.
 1045 0000 0368     		ldr	r3, [r0]
 1046 0002 51B1     		cbz	r1, .L100
 1047 0004 0429     		cmp	r1, #4
 1048 0006 10D0     		beq	.L105
 1049 0008 1A6A     		ldr	r2, [r3, #32]
 1050 000a 22F00102 		bic	r2, r2, #1
 1051 000e 1A62     		str	r2, [r3, #32]
 1052 0010 1A6A     		ldr	r2, [r3, #32]
 1053 0012 42F00102 		orr	r2, r2, #1
 1054 0016 1A62     		str	r2, [r3, #32]
 1055 0018 07E0     		b	.L105
 1056              	.L100:
 1057 001a 1A6A     		ldr	r2, [r3, #32]
 1058 001c 22F00102 		bic	r2, r2, #1
 1059 0020 1A62     		str	r2, [r3, #32]
 1060 0022 1A6A     		ldr	r2, [r3, #32]
 1061 0024 42F00102 		orr	r2, r2, #1
 1062 0028 06E0     		b	.L104
 1063              	.L105:
 1064 002a 1A6A     		ldr	r2, [r3, #32]
 1065 002c 22F01002 		bic	r2, r2, #16
 1066 0030 1A62     		str	r2, [r3, #32]
 1067 0032 1A6A     		ldr	r2, [r3, #32]
 1068 0034 42F01002 		orr	r2, r2, #16
 1069              	.L104:
 1070 0038 1A62     		str	r2, [r3, #32]
 1071 003a 1A68     		ldr	r2, [r3]
 1072 003c 0020     		movs	r0, #0
 1073 003e 42F00102 		orr	r2, r2, #1
 1074 0042 1A60     		str	r2, [r3]
 1075 0044 7047     		bx	lr
 1077              		.section	.text.HAL_TIM_Encoder_Stop,"ax",%progbits
 1078              		.align	1
 1079              		.global	HAL_TIM_Encoder_Stop
 1080              		.thumb
 1081              		.thumb_func
 1083              	HAL_TIM_Encoder_Stop:
 1084              		@ args = 0, pretend = 0, frame = 0
 1085              		@ frame_needed = 0, uses_anonymous_args = 0
 1086              		@ link register save eliminated.
 1087 0000 0368     		ldr	r3, [r0]
 1088 0002 41B1     		cbz	r1, .L108
 1089 0004 0429     		cmp	r1, #4
 1090 0006 0AD0     		beq	.L114
 1091 0008 1A6A     		ldr	r2, [r3, #32]
 1092 000a 22F00102 		bic	r2, r2, #1
 1093 000e 1A62     		str	r2, [r3, #32]
ARM GAS  /tmp/cciUsAoE.s 			page 19


 1094 0010 1A6A     		ldr	r2, [r3, #32]
 1095 0012 1A62     		str	r2, [r3, #32]
 1096 0014 03E0     		b	.L114
 1097              	.L108:
 1098 0016 1A6A     		ldr	r2, [r3, #32]
 1099 0018 22F00102 		bic	r2, r2, #1
 1100 001c 02E0     		b	.L113
 1101              	.L114:
 1102 001e 1A6A     		ldr	r2, [r3, #32]
 1103 0020 22F01002 		bic	r2, r2, #16
 1104              	.L113:
 1105 0024 1A62     		str	r2, [r3, #32]
 1106 0026 1A6A     		ldr	r2, [r3, #32]
 1107 0028 1A62     		str	r2, [r3, #32]
 1108 002a 41F21112 		movw	r2, #4369
 1109 002e 196A     		ldr	r1, [r3, #32]
 1110 0030 0A40     		ands	r2, r2, r1
 1111 0032 42B9     		cbnz	r2, .L111
 1112 0034 40F24442 		movw	r2, #1092
 1113 0038 196A     		ldr	r1, [r3, #32]
 1114 003a 0A40     		ands	r2, r2, r1
 1115 003c 1AB9     		cbnz	r2, .L111
 1116 003e 1A68     		ldr	r2, [r3]
 1117 0040 22F00102 		bic	r2, r2, #1
 1118 0044 1A60     		str	r2, [r3]
 1119              	.L111:
 1120 0046 0020     		movs	r0, #0
 1121 0048 7047     		bx	lr
 1123              		.section	.text.HAL_TIM_Encoder_Start_IT,"ax",%progbits
 1124              		.align	1
 1125              		.global	HAL_TIM_Encoder_Start_IT
 1126              		.thumb
 1127              		.thumb_func
 1129              	HAL_TIM_Encoder_Start_IT:
 1130              		@ args = 0, pretend = 0, frame = 0
 1131              		@ frame_needed = 0, uses_anonymous_args = 0
 1132              		@ link register save eliminated.
 1133 0000 0368     		ldr	r3, [r0]
 1134 0002 51B1     		cbz	r1, .L117
 1135 0004 0429     		cmp	r1, #4
 1136 0006 14D1     		bne	.L123
 1137 0008 1A6A     		ldr	r2, [r3, #32]
 1138 000a 22F01002 		bic	r2, r2, #16
 1139 000e 1A62     		str	r2, [r3, #32]
 1140 0010 1A6A     		ldr	r2, [r3, #32]
 1141 0012 42F01002 		orr	r2, r2, #16
 1142 0016 1A62     		str	r2, [r3, #32]
 1143 0018 1FE0     		b	.L122
 1144              	.L117:
 1145 001a 1A6A     		ldr	r2, [r3, #32]
 1146 001c 22F00102 		bic	r2, r2, #1
 1147 0020 1A62     		str	r2, [r3, #32]
 1148 0022 1A6A     		ldr	r2, [r3, #32]
 1149 0024 42F00102 		orr	r2, r2, #1
 1150 0028 1A62     		str	r2, [r3, #32]
 1151 002a DA68     		ldr	r2, [r3, #12]
 1152 002c 42F00202 		orr	r2, r2, #2
ARM GAS  /tmp/cciUsAoE.s 			page 20


 1153 0030 16E0     		b	.L121
 1154              	.L123:
 1155 0032 1A6A     		ldr	r2, [r3, #32]
 1156 0034 22F00102 		bic	r2, r2, #1
 1157 0038 1A62     		str	r2, [r3, #32]
 1158 003a 1A6A     		ldr	r2, [r3, #32]
 1159 003c 42F00102 		orr	r2, r2, #1
 1160 0040 1A62     		str	r2, [r3, #32]
 1161 0042 1A6A     		ldr	r2, [r3, #32]
 1162 0044 22F01002 		bic	r2, r2, #16
 1163 0048 1A62     		str	r2, [r3, #32]
 1164 004a 1A6A     		ldr	r2, [r3, #32]
 1165 004c 42F01002 		orr	r2, r2, #16
 1166 0050 1A62     		str	r2, [r3, #32]
 1167 0052 DA68     		ldr	r2, [r3, #12]
 1168 0054 42F00202 		orr	r2, r2, #2
 1169 0058 DA60     		str	r2, [r3, #12]
 1170              	.L122:
 1171 005a DA68     		ldr	r2, [r3, #12]
 1172 005c 42F00402 		orr	r2, r2, #4
 1173              	.L121:
 1174 0060 DA60     		str	r2, [r3, #12]
 1175 0062 1A68     		ldr	r2, [r3]
 1176 0064 0020     		movs	r0, #0
 1177 0066 42F00102 		orr	r2, r2, #1
 1178 006a 1A60     		str	r2, [r3]
 1179 006c 7047     		bx	lr
 1181              		.section	.text.HAL_TIM_Encoder_Stop_IT,"ax",%progbits
 1182              		.align	1
 1183              		.global	HAL_TIM_Encoder_Stop_IT
 1184              		.thumb
 1185              		.thumb_func
 1187              	HAL_TIM_Encoder_Stop_IT:
 1188              		@ args = 0, pretend = 0, frame = 0
 1189              		@ frame_needed = 0, uses_anonymous_args = 0
 1190              		@ link register save eliminated.
 1191 0000 0368     		ldr	r3, [r0]
 1192 0002 1A6A     		ldr	r2, [r3, #32]
 1193 0004 41B9     		cbnz	r1, .L125
 1194 0006 22F00102 		bic	r2, r2, #1
 1195 000a 1A62     		str	r2, [r3, #32]
 1196 000c 1A6A     		ldr	r2, [r3, #32]
 1197 000e 1A62     		str	r2, [r3, #32]
 1198 0010 DA68     		ldr	r2, [r3, #12]
 1199 0012 22F00202 		bic	r2, r2, #2
 1200 0016 19E0     		b	.L129
 1201              	.L125:
 1202 0018 0429     		cmp	r1, #4
 1203 001a 05D1     		bne	.L127
 1204 001c 22F01002 		bic	r2, r2, #16
 1205 0020 1A62     		str	r2, [r3, #32]
 1206 0022 1A6A     		ldr	r2, [r3, #32]
 1207 0024 1A62     		str	r2, [r3, #32]
 1208 0026 0EE0     		b	.L130
 1209              	.L127:
 1210 0028 22F00102 		bic	r2, r2, #1
 1211 002c 1A62     		str	r2, [r3, #32]
ARM GAS  /tmp/cciUsAoE.s 			page 21


 1212 002e 1A6A     		ldr	r2, [r3, #32]
 1213 0030 1A62     		str	r2, [r3, #32]
 1214 0032 1A6A     		ldr	r2, [r3, #32]
 1215 0034 22F01002 		bic	r2, r2, #16
 1216 0038 1A62     		str	r2, [r3, #32]
 1217 003a 1A6A     		ldr	r2, [r3, #32]
 1218 003c 1A62     		str	r2, [r3, #32]
 1219 003e DA68     		ldr	r2, [r3, #12]
 1220 0040 22F00202 		bic	r2, r2, #2
 1221 0044 DA60     		str	r2, [r3, #12]
 1222              	.L130:
 1223 0046 DA68     		ldr	r2, [r3, #12]
 1224 0048 22F00402 		bic	r2, r2, #4
 1225              	.L129:
 1226 004c DA60     		str	r2, [r3, #12]
 1227 004e 41F21112 		movw	r2, #4369
 1228 0052 196A     		ldr	r1, [r3, #32]
 1229 0054 0A40     		ands	r2, r2, r1
 1230 0056 42B9     		cbnz	r2, .L128
 1231 0058 40F24442 		movw	r2, #1092
 1232 005c 196A     		ldr	r1, [r3, #32]
 1233 005e 0A40     		ands	r2, r2, r1
 1234 0060 1AB9     		cbnz	r2, .L128
 1235 0062 1A68     		ldr	r2, [r3]
 1236 0064 22F00102 		bic	r2, r2, #1
 1237 0068 1A60     		str	r2, [r3]
 1238              	.L128:
 1239 006a 0123     		movs	r3, #1
 1240 006c 80F83930 		strb	r3, [r0, #57]
 1241 0070 0020     		movs	r0, #0
 1242 0072 7047     		bx	lr
 1244              		.section	.text.HAL_TIM_Encoder_Start_DMA,"ax",%progbits
 1245              		.align	1
 1246              		.global	HAL_TIM_Encoder_Start_DMA
 1247              		.thumb
 1248              		.thumb_func
 1250              	HAL_TIM_Encoder_Start_DMA:
 1251              		@ args = 4, pretend = 0, frame = 0
 1252              		@ frame_needed = 0, uses_anonymous_args = 0
 1253 0000 2DE9F041 		push	{r4, r5, r6, r7, r8, lr}
 1254 0004 0446     		mov	r4, r0
 1255 0006 90F83900 		ldrb	r0, [r0, #57]	@ zero_extendqisi2
 1256 000a 0E46     		mov	r6, r1
 1257 000c C0B2     		uxtb	r0, r0
 1258 000e 0228     		cmp	r0, #2
 1259 0010 1F46     		mov	r7, r3
 1260 0012 BDF81850 		ldrh	r5, [sp, #24]
 1261 0016 00F08180 		beq	.L132
 1262 001a 94F83930 		ldrb	r3, [r4, #57]	@ zero_extendqisi2
 1263 001e 012B     		cmp	r3, #1
 1264 0020 06D1     		bne	.L133
 1265 0022 02B1     		cbz	r2, .L134
 1266 0024 0FB9     		cbnz	r7, .L135
 1267              	.L134:
 1268 0026 002D     		cmp	r5, #0
 1269 0028 74D1     		bne	.L140
 1270              	.L135:
ARM GAS  /tmp/cciUsAoE.s 			page 22


 1271 002a 0223     		movs	r3, #2
 1272 002c 84F83930 		strb	r3, [r4, #57]
 1273              	.L133:
 1274 0030 042E     		cmp	r6, #4
 1275 0032 1ED0     		beq	.L136
 1276 0034 182E     		cmp	r6, #24
 1277 0036 39D0     		beq	.L137
 1278 0038 002E     		cmp	r6, #0
 1279 003a 6ED1     		bne	.L145
 1280 003c 206A     		ldr	r0, [r4, #32]
 1281 003e 384B     		ldr	r3, .L147
 1282 0040 2168     		ldr	r1, [r4]
 1283 0042 8362     		str	r3, [r0, #40]
 1284 0044 374B     		ldr	r3, .L147+4
 1285 0046 3431     		adds	r1, r1, #52
 1286 0048 0363     		str	r3, [r0, #48]
 1287 004a 2B46     		mov	r3, r5
 1288 004c FFF7FEFF 		bl	HAL_DMA_Start_IT
 1289 0050 2368     		ldr	r3, [r4]
 1290 0052 DA68     		ldr	r2, [r3, #12]
 1291 0054 42F40072 		orr	r2, r2, #512
 1292 0058 DA60     		str	r2, [r3, #12]
 1293 005a 1A68     		ldr	r2, [r3]
 1294 005c 42F00102 		orr	r2, r2, #1
 1295 0060 1A60     		str	r2, [r3]
 1296 0062 1A6A     		ldr	r2, [r3, #32]
 1297 0064 22F00102 		bic	r2, r2, #1
 1298 0068 1A62     		str	r2, [r3, #32]
 1299 006a 1A6A     		ldr	r2, [r3, #32]
 1300 006c 42F00102 		orr	r2, r2, #1
 1301 0070 1AE0     		b	.L146
 1302              	.L136:
 1303 0072 606A     		ldr	r0, [r4, #36]
 1304 0074 2A4B     		ldr	r3, .L147
 1305 0076 2168     		ldr	r1, [r4]
 1306 0078 8362     		str	r3, [r0, #40]
 1307 007a 2A4B     		ldr	r3, .L147+4
 1308 007c 3A46     		mov	r2, r7
 1309 007e 0363     		str	r3, [r0, #48]
 1310 0080 3831     		adds	r1, r1, #56
 1311 0082 2B46     		mov	r3, r5
 1312 0084 FFF7FEFF 		bl	HAL_DMA_Start_IT
 1313 0088 2368     		ldr	r3, [r4]
 1314 008a DA68     		ldr	r2, [r3, #12]
 1315 008c 42F48062 		orr	r2, r2, #1024
 1316 0090 DA60     		str	r2, [r3, #12]
 1317 0092 1A68     		ldr	r2, [r3]
 1318 0094 42F00102 		orr	r2, r2, #1
 1319 0098 1A60     		str	r2, [r3]
 1320 009a 1A6A     		ldr	r2, [r3, #32]
 1321 009c 22F01002 		bic	r2, r2, #16
 1322 00a0 1A62     		str	r2, [r3, #32]
 1323 00a2 1A6A     		ldr	r2, [r3, #32]
 1324 00a4 42F01002 		orr	r2, r2, #16
 1325              	.L146:
 1326 00a8 1A62     		str	r2, [r3, #32]
 1327 00aa 36E0     		b	.L145
ARM GAS  /tmp/cciUsAoE.s 			page 23


 1328              	.L137:
 1329 00ac 206A     		ldr	r0, [r4, #32]
 1330 00ae DFF87080 		ldr	r8, .L147
 1331 00b2 1C4E     		ldr	r6, .L147+4
 1332 00b4 2168     		ldr	r1, [r4]
 1333 00b6 2B46     		mov	r3, r5
 1334 00b8 3431     		adds	r1, r1, #52
 1335 00ba C0F82880 		str	r8, [r0, #40]
 1336 00be 0663     		str	r6, [r0, #48]
 1337 00c0 FFF7FEFF 		bl	HAL_DMA_Start_IT
 1338 00c4 606A     		ldr	r0, [r4, #36]
 1339 00c6 2168     		ldr	r1, [r4]
 1340 00c8 3A46     		mov	r2, r7
 1341 00ca 2B46     		mov	r3, r5
 1342 00cc C0F82880 		str	r8, [r0, #40]
 1343 00d0 0663     		str	r6, [r0, #48]
 1344 00d2 3831     		adds	r1, r1, #56
 1345 00d4 FFF7FEFF 		bl	HAL_DMA_Start_IT
 1346 00d8 2368     		ldr	r3, [r4]
 1347 00da 1A68     		ldr	r2, [r3]
 1348 00dc 42F00102 		orr	r2, r2, #1
 1349 00e0 1A60     		str	r2, [r3]
 1350 00e2 1A6A     		ldr	r2, [r3, #32]
 1351 00e4 22F00102 		bic	r2, r2, #1
 1352 00e8 1A62     		str	r2, [r3, #32]
 1353 00ea 1A6A     		ldr	r2, [r3, #32]
 1354 00ec 42F00102 		orr	r2, r2, #1
 1355 00f0 1A62     		str	r2, [r3, #32]
 1356 00f2 1A6A     		ldr	r2, [r3, #32]
 1357 00f4 22F01002 		bic	r2, r2, #16
 1358 00f8 1A62     		str	r2, [r3, #32]
 1359 00fa 1A6A     		ldr	r2, [r3, #32]
 1360 00fc 42F01002 		orr	r2, r2, #16
 1361 0100 1A62     		str	r2, [r3, #32]
 1362 0102 DA68     		ldr	r2, [r3, #12]
 1363 0104 42F40072 		orr	r2, r2, #512
 1364 0108 DA60     		str	r2, [r3, #12]
 1365 010a DA68     		ldr	r2, [r3, #12]
 1366 010c 42F48062 		orr	r2, r2, #1024
 1367 0110 DA60     		str	r2, [r3, #12]
 1368 0112 02E0     		b	.L145
 1369              	.L140:
 1370 0114 0120     		movs	r0, #1
 1371 0116 BDE8F081 		pop	{r4, r5, r6, r7, r8, pc}
 1372              	.L145:
 1373 011a 0020     		movs	r0, #0
 1374              	.L132:
 1375 011c BDE8F081 		pop	{r4, r5, r6, r7, r8, pc}
 1376              	.L148:
 1377              		.align	2
 1378              	.L147:
 1379 0120 00000000 		.word	TIM_DMACaptureCplt
 1380 0124 00000000 		.word	TIM_DMAError
 1382              		.section	.text.HAL_TIM_Encoder_Stop_DMA,"ax",%progbits
 1383              		.align	1
 1384              		.global	HAL_TIM_Encoder_Stop_DMA
 1385              		.thumb
ARM GAS  /tmp/cciUsAoE.s 			page 24


 1386              		.thumb_func
 1388              	HAL_TIM_Encoder_Stop_DMA:
 1389              		@ args = 0, pretend = 0, frame = 0
 1390              		@ frame_needed = 0, uses_anonymous_args = 0
 1391              		@ link register save eliminated.
 1392 0000 0368     		ldr	r3, [r0]
 1393 0002 1A6A     		ldr	r2, [r3, #32]
 1394 0004 41B9     		cbnz	r1, .L150
 1395 0006 22F00102 		bic	r2, r2, #1
 1396 000a 1A62     		str	r2, [r3, #32]
 1397 000c 1A6A     		ldr	r2, [r3, #32]
 1398 000e 1A62     		str	r2, [r3, #32]
 1399 0010 DA68     		ldr	r2, [r3, #12]
 1400 0012 22F40072 		bic	r2, r2, #512
 1401 0016 19E0     		b	.L154
 1402              	.L150:
 1403 0018 0429     		cmp	r1, #4
 1404 001a 05D1     		bne	.L152
 1405 001c 22F01002 		bic	r2, r2, #16
 1406 0020 1A62     		str	r2, [r3, #32]
 1407 0022 1A6A     		ldr	r2, [r3, #32]
 1408 0024 1A62     		str	r2, [r3, #32]
 1409 0026 0EE0     		b	.L155
 1410              	.L152:
 1411 0028 22F00102 		bic	r2, r2, #1
 1412 002c 1A62     		str	r2, [r3, #32]
 1413 002e 1A6A     		ldr	r2, [r3, #32]
 1414 0030 1A62     		str	r2, [r3, #32]
 1415 0032 1A6A     		ldr	r2, [r3, #32]
 1416 0034 22F01002 		bic	r2, r2, #16
 1417 0038 1A62     		str	r2, [r3, #32]
 1418 003a 1A6A     		ldr	r2, [r3, #32]
 1419 003c 1A62     		str	r2, [r3, #32]
 1420 003e DA68     		ldr	r2, [r3, #12]
 1421 0040 22F40072 		bic	r2, r2, #512
 1422 0044 DA60     		str	r2, [r3, #12]
 1423              	.L155:
 1424 0046 DA68     		ldr	r2, [r3, #12]
 1425 0048 22F48062 		bic	r2, r2, #1024
 1426              	.L154:
 1427 004c DA60     		str	r2, [r3, #12]
 1428 004e 41F21112 		movw	r2, #4369
 1429 0052 196A     		ldr	r1, [r3, #32]
 1430 0054 0A40     		ands	r2, r2, r1
 1431 0056 42B9     		cbnz	r2, .L153
 1432 0058 40F24442 		movw	r2, #1092
 1433 005c 196A     		ldr	r1, [r3, #32]
 1434 005e 0A40     		ands	r2, r2, r1
 1435 0060 1AB9     		cbnz	r2, .L153
 1436 0062 1A68     		ldr	r2, [r3]
 1437 0064 22F00102 		bic	r2, r2, #1
 1438 0068 1A60     		str	r2, [r3]
 1439              	.L153:
 1440 006a 0123     		movs	r3, #1
 1441 006c 80F83930 		strb	r3, [r0, #57]
 1442 0070 0020     		movs	r0, #0
 1443 0072 7047     		bx	lr
ARM GAS  /tmp/cciUsAoE.s 			page 25


 1445              		.section	.text.HAL_TIM_DMABurst_WriteStart,"ax",%progbits
 1446              		.align	1
 1447              		.global	HAL_TIM_DMABurst_WriteStart
 1448              		.thumb
 1449              		.thumb_func
 1451              	HAL_TIM_DMABurst_WriteStart:
 1452              		@ args = 4, pretend = 0, frame = 0
 1453              		@ frame_needed = 0, uses_anonymous_args = 0
 1454 0000 F8B5     		push	{r3, r4, r5, r6, r7, lr}
 1455 0002 0446     		mov	r4, r0
 1456 0004 90F83900 		ldrb	r0, [r0, #57]	@ zero_extendqisi2
 1457 0008 0F46     		mov	r7, r1
 1458 000a C0B2     		uxtb	r0, r0
 1459 000c 0228     		cmp	r0, #2
 1460 000e 1646     		mov	r6, r2
 1461 0010 1946     		mov	r1, r3
 1462 0012 069D     		ldr	r5, [sp, #24]
 1463 0014 44D0     		beq	.L157
 1464 0016 94F83900 		ldrb	r0, [r4, #57]	@ zero_extendqisi2
 1465 001a C0B2     		uxtb	r0, r0
 1466 001c 0128     		cmp	r0, #1
 1467 001e 05D1     		bne	.L158
 1468 0020 0BB9     		cbnz	r3, .L159
 1469 0022 002D     		cmp	r5, #0
 1470 0024 3CD1     		bne	.L157
 1471              	.L159:
 1472 0026 0223     		movs	r3, #2
 1473 0028 84F83930 		strb	r3, [r4, #57]
 1474              	.L158:
 1475 002c B6F5006F 		cmp	r6, #2048
 1476 0030 2268     		ldr	r2, [r4]
 1477 0032 1CD0     		beq	.L161
 1478 0034 0BD8     		bhi	.L162
 1479 0036 B6F5007F 		cmp	r6, #512
 1480 003a 13D0     		beq	.L163
 1481 003c B6F5806F 		cmp	r6, #1024
 1482 0040 12D0     		beq	.L164
 1483 0042 B6F5807F 		cmp	r6, #256
 1484 0046 21D1     		bne	.L160
 1485 0048 E069     		ldr	r0, [r4, #28]
 1486 004a 164B     		ldr	r3, .L173
 1487 004c 16E0     		b	.L171
 1488              	.L162:
 1489 004e B6F5005F 		cmp	r6, #8192
 1490 0052 0ED0     		beq	.L166
 1491 0054 B6F5804F 		cmp	r6, #16384
 1492 0058 0ED0     		beq	.L167
 1493 005a B6F5805F 		cmp	r6, #4096
 1494 005e 15D1     		bne	.L160
 1495 0060 E06A     		ldr	r0, [r4, #44]
 1496 0062 02E0     		b	.L172
 1497              	.L163:
 1498 0064 206A     		ldr	r0, [r4, #32]
 1499 0066 00E0     		b	.L172
 1500              	.L164:
 1501 0068 606A     		ldr	r0, [r4, #36]
 1502              	.L172:
ARM GAS  /tmp/cciUsAoE.s 			page 26


 1503 006a 0F4B     		ldr	r3, .L173+4
 1504 006c 06E0     		b	.L171
 1505              	.L161:
 1506 006e A06A     		ldr	r0, [r4, #40]
 1507 0070 FBE7     		b	.L172
 1508              	.L166:
 1509 0072 206B     		ldr	r0, [r4, #48]
 1510 0074 0D4B     		ldr	r3, .L173+8
 1511 0076 01E0     		b	.L171
 1512              	.L167:
 1513 0078 606B     		ldr	r0, [r4, #52]
 1514 007a 0D4B     		ldr	r3, .L173+12
 1515              	.L171:
 1516 007c 8362     		str	r3, [r0, #40]
 1517 007e 0D4B     		ldr	r3, .L173+16
 1518 0080 4C32     		adds	r2, r2, #76
 1519 0082 0363     		str	r3, [r0, #48]
 1520 0084 2B0A     		lsrs	r3, r5, #8
 1521 0086 0133     		adds	r3, r3, #1
 1522 0088 FFF7FEFF 		bl	HAL_DMA_Start_IT
 1523              	.L160:
 1524 008c 2368     		ldr	r3, [r4]
 1525 008e 3D43     		orrs	r5, r5, r7
 1526 0090 9D64     		str	r5, [r3, #72]
 1527 0092 DA68     		ldr	r2, [r3, #12]
 1528 0094 0020     		movs	r0, #0
 1529 0096 1643     		orrs	r6, r6, r2
 1530 0098 DE60     		str	r6, [r3, #12]
 1531 009a 0123     		movs	r3, #1
 1532 009c 84F83930 		strb	r3, [r4, #57]
 1533              	.L157:
 1534 00a0 F8BD     		pop	{r3, r4, r5, r6, r7, pc}
 1535              	.L174:
 1536 00a2 00BF     		.align	2
 1537              	.L173:
 1538 00a4 00000000 		.word	TIM_DMAPeriodElapsedCplt
 1539 00a8 00000000 		.word	TIM_DMADelayPulseCplt
 1540 00ac 00000000 		.word	TIMEx_DMACommutationCplt
 1541 00b0 00000000 		.word	TIM_DMATriggerCplt
 1542 00b4 00000000 		.word	TIM_DMAError
 1544              		.section	.text.HAL_TIM_DMABurst_WriteStop,"ax",%progbits
 1545              		.align	1
 1546              		.global	HAL_TIM_DMABurst_WriteStop
 1547              		.thumb
 1548              		.thumb_func
 1550              	HAL_TIM_DMABurst_WriteStop:
 1551              		@ args = 0, pretend = 0, frame = 0
 1552              		@ frame_needed = 0, uses_anonymous_args = 0
 1553 0000 B1F5006F 		cmp	r1, #2048
 1554 0004 38B5     		push	{r3, r4, r5, lr}
 1555 0006 0546     		mov	r5, r0
 1556 0008 0C46     		mov	r4, r1
 1557 000a 1AD0     		beq	.L177
 1558 000c 0AD8     		bhi	.L178
 1559 000e B1F5007F 		cmp	r1, #512
 1560 0012 12D0     		beq	.L179
 1561 0014 B1F5806F 		cmp	r1, #1024
ARM GAS  /tmp/cciUsAoE.s 			page 27


 1562 0018 11D0     		beq	.L180
 1563 001a B1F5807F 		cmp	r1, #256
 1564 001e 17D1     		bne	.L176
 1565 0020 C069     		ldr	r0, [r0, #28]
 1566 0022 13E0     		b	.L185
 1567              	.L178:
 1568 0024 B1F5005F 		cmp	r1, #8192
 1569 0028 0DD0     		beq	.L182
 1570 002a B1F5804F 		cmp	r1, #16384
 1571 002e 0CD0     		beq	.L183
 1572 0030 B1F5805F 		cmp	r1, #4096
 1573 0034 0CD1     		bne	.L176
 1574 0036 C06A     		ldr	r0, [r0, #44]
 1575 0038 08E0     		b	.L185
 1576              	.L179:
 1577 003a 006A     		ldr	r0, [r0, #32]
 1578 003c 06E0     		b	.L185
 1579              	.L180:
 1580 003e 406A     		ldr	r0, [r0, #36]
 1581 0040 04E0     		b	.L185
 1582              	.L177:
 1583 0042 806A     		ldr	r0, [r0, #40]
 1584 0044 02E0     		b	.L185
 1585              	.L182:
 1586 0046 006B     		ldr	r0, [r0, #48]
 1587 0048 00E0     		b	.L185
 1588              	.L183:
 1589 004a 406B     		ldr	r0, [r0, #52]
 1590              	.L185:
 1591 004c FFF7FEFF 		bl	HAL_DMA_Abort
 1592              	.L176:
 1593 0050 2A68     		ldr	r2, [r5]
 1594 0052 0020     		movs	r0, #0
 1595 0054 D368     		ldr	r3, [r2, #12]
 1596 0056 23EA0404 		bic	r4, r3, r4
 1597 005a D460     		str	r4, [r2, #12]
 1598 005c 38BD     		pop	{r3, r4, r5, pc}
 1600              		.section	.text.HAL_TIM_DMABurst_ReadStart,"ax",%progbits
 1601              		.align	1
 1602              		.global	HAL_TIM_DMABurst_ReadStart
 1603              		.thumb
 1604              		.thumb_func
 1606              	HAL_TIM_DMABurst_ReadStart:
 1607              		@ args = 4, pretend = 0, frame = 0
 1608              		@ frame_needed = 0, uses_anonymous_args = 0
 1609 0000 F8B5     		push	{r3, r4, r5, r6, r7, lr}
 1610 0002 0446     		mov	r4, r0
 1611 0004 90F83900 		ldrb	r0, [r0, #57]	@ zero_extendqisi2
 1612 0008 1646     		mov	r6, r2
 1613 000a C0B2     		uxtb	r0, r0
 1614 000c 0228     		cmp	r0, #2
 1615 000e 0F46     		mov	r7, r1
 1616 0010 1A46     		mov	r2, r3
 1617 0012 069D     		ldr	r5, [sp, #24]
 1618 0014 44D0     		beq	.L187
 1619 0016 94F83900 		ldrb	r0, [r4, #57]	@ zero_extendqisi2
 1620 001a C0B2     		uxtb	r0, r0
ARM GAS  /tmp/cciUsAoE.s 			page 28


 1621 001c 0128     		cmp	r0, #1
 1622 001e 05D1     		bne	.L188
 1623 0020 0BB9     		cbnz	r3, .L189
 1624 0022 002D     		cmp	r5, #0
 1625 0024 3CD1     		bne	.L187
 1626              	.L189:
 1627 0026 0223     		movs	r3, #2
 1628 0028 84F83930 		strb	r3, [r4, #57]
 1629              	.L188:
 1630 002c B6F5006F 		cmp	r6, #2048
 1631 0030 2168     		ldr	r1, [r4]
 1632 0032 1CD0     		beq	.L191
 1633 0034 0BD8     		bhi	.L192
 1634 0036 B6F5007F 		cmp	r6, #512
 1635 003a 13D0     		beq	.L193
 1636 003c B6F5806F 		cmp	r6, #1024
 1637 0040 12D0     		beq	.L194
 1638 0042 B6F5807F 		cmp	r6, #256
 1639 0046 21D1     		bne	.L190
 1640 0048 E069     		ldr	r0, [r4, #28]
 1641 004a 164B     		ldr	r3, .L203
 1642 004c 16E0     		b	.L201
 1643              	.L192:
 1644 004e B6F5005F 		cmp	r6, #8192
 1645 0052 0ED0     		beq	.L196
 1646 0054 B6F5804F 		cmp	r6, #16384
 1647 0058 0ED0     		beq	.L197
 1648 005a B6F5805F 		cmp	r6, #4096
 1649 005e 15D1     		bne	.L190
 1650 0060 E06A     		ldr	r0, [r4, #44]
 1651 0062 02E0     		b	.L202
 1652              	.L193:
 1653 0064 206A     		ldr	r0, [r4, #32]
 1654 0066 00E0     		b	.L202
 1655              	.L194:
 1656 0068 606A     		ldr	r0, [r4, #36]
 1657              	.L202:
 1658 006a 0F4B     		ldr	r3, .L203+4
 1659 006c 06E0     		b	.L201
 1660              	.L191:
 1661 006e A06A     		ldr	r0, [r4, #40]
 1662 0070 FBE7     		b	.L202
 1663              	.L196:
 1664 0072 206B     		ldr	r0, [r4, #48]
 1665 0074 0D4B     		ldr	r3, .L203+8
 1666 0076 01E0     		b	.L201
 1667              	.L197:
 1668 0078 606B     		ldr	r0, [r4, #52]
 1669 007a 0D4B     		ldr	r3, .L203+12
 1670              	.L201:
 1671 007c 8362     		str	r3, [r0, #40]
 1672 007e 0D4B     		ldr	r3, .L203+16
 1673 0080 4C31     		adds	r1, r1, #76
 1674 0082 0363     		str	r3, [r0, #48]
 1675 0084 2B0A     		lsrs	r3, r5, #8
 1676 0086 0133     		adds	r3, r3, #1
 1677 0088 FFF7FEFF 		bl	HAL_DMA_Start_IT
ARM GAS  /tmp/cciUsAoE.s 			page 29


 1678              	.L190:
 1679 008c 2368     		ldr	r3, [r4]
 1680 008e 3D43     		orrs	r5, r5, r7
 1681 0090 9D64     		str	r5, [r3, #72]
 1682 0092 DA68     		ldr	r2, [r3, #12]
 1683 0094 0020     		movs	r0, #0
 1684 0096 1643     		orrs	r6, r6, r2
 1685 0098 DE60     		str	r6, [r3, #12]
 1686 009a 0123     		movs	r3, #1
 1687 009c 84F83930 		strb	r3, [r4, #57]
 1688              	.L187:
 1689 00a0 F8BD     		pop	{r3, r4, r5, r6, r7, pc}
 1690              	.L204:
 1691 00a2 00BF     		.align	2
 1692              	.L203:
 1693 00a4 00000000 		.word	TIM_DMAPeriodElapsedCplt
 1694 00a8 00000000 		.word	TIM_DMACaptureCplt
 1695 00ac 00000000 		.word	TIMEx_DMACommutationCplt
 1696 00b0 00000000 		.word	TIM_DMATriggerCplt
 1697 00b4 00000000 		.word	TIM_DMAError
 1699              		.section	.text.HAL_TIM_DMABurst_ReadStop,"ax",%progbits
 1700              		.align	1
 1701              		.global	HAL_TIM_DMABurst_ReadStop
 1702              		.thumb
 1703              		.thumb_func
 1705              	HAL_TIM_DMABurst_ReadStop:
 1706              		@ args = 0, pretend = 0, frame = 0
 1707              		@ frame_needed = 0, uses_anonymous_args = 0
 1708 0000 B1F5006F 		cmp	r1, #2048
 1709 0004 38B5     		push	{r3, r4, r5, lr}
 1710 0006 0546     		mov	r5, r0
 1711 0008 0C46     		mov	r4, r1
 1712 000a 1AD0     		beq	.L207
 1713 000c 0AD8     		bhi	.L208
 1714 000e B1F5007F 		cmp	r1, #512
 1715 0012 12D0     		beq	.L209
 1716 0014 B1F5806F 		cmp	r1, #1024
 1717 0018 11D0     		beq	.L210
 1718 001a B1F5807F 		cmp	r1, #256
 1719 001e 17D1     		bne	.L206
 1720 0020 C069     		ldr	r0, [r0, #28]
 1721 0022 13E0     		b	.L215
 1722              	.L208:
 1723 0024 B1F5005F 		cmp	r1, #8192
 1724 0028 0DD0     		beq	.L212
 1725 002a B1F5804F 		cmp	r1, #16384
 1726 002e 0CD0     		beq	.L213
 1727 0030 B1F5805F 		cmp	r1, #4096
 1728 0034 0CD1     		bne	.L206
 1729 0036 C06A     		ldr	r0, [r0, #44]
 1730 0038 08E0     		b	.L215
 1731              	.L209:
 1732 003a 006A     		ldr	r0, [r0, #32]
 1733 003c 06E0     		b	.L215
 1734              	.L210:
 1735 003e 406A     		ldr	r0, [r0, #36]
 1736 0040 04E0     		b	.L215
ARM GAS  /tmp/cciUsAoE.s 			page 30


 1737              	.L207:
 1738 0042 806A     		ldr	r0, [r0, #40]
 1739 0044 02E0     		b	.L215
 1740              	.L212:
 1741 0046 006B     		ldr	r0, [r0, #48]
 1742 0048 00E0     		b	.L215
 1743              	.L213:
 1744 004a 406B     		ldr	r0, [r0, #52]
 1745              	.L215:
 1746 004c FFF7FEFF 		bl	HAL_DMA_Abort
 1747              	.L206:
 1748 0050 2A68     		ldr	r2, [r5]
 1749 0052 0020     		movs	r0, #0
 1750 0054 D368     		ldr	r3, [r2, #12]
 1751 0056 23EA0404 		bic	r4, r3, r4
 1752 005a D460     		str	r4, [r2, #12]
 1753 005c 38BD     		pop	{r3, r4, r5, pc}
 1755              		.section	.text.HAL_TIM_GenerateEvent,"ax",%progbits
 1756              		.align	1
 1757              		.global	HAL_TIM_GenerateEvent
 1758              		.thumb
 1759              		.thumb_func
 1761              	HAL_TIM_GenerateEvent:
 1762              		@ args = 0, pretend = 0, frame = 0
 1763              		@ frame_needed = 0, uses_anonymous_args = 0
 1764              		@ link register save eliminated.
 1765 0000 90F83830 		ldrb	r3, [r0, #56]	@ zero_extendqisi2
 1766 0004 012B     		cmp	r3, #1
 1767 0006 4FF00203 		mov	r3, #2
 1768 000a 09D0     		beq	.L218
 1769 000c 80F83930 		strb	r3, [r0, #57]
 1770 0010 0368     		ldr	r3, [r0]
 1771 0012 5961     		str	r1, [r3, #20]
 1772 0014 0123     		movs	r3, #1
 1773 0016 80F83930 		strb	r3, [r0, #57]
 1774 001a 0023     		movs	r3, #0
 1775 001c 80F83830 		strb	r3, [r0, #56]
 1776              	.L218:
 1777 0020 1846     		mov	r0, r3
 1778 0022 7047     		bx	lr
 1780              		.section	.text.HAL_TIM_ConfigOCrefClear,"ax",%progbits
 1781              		.align	1
 1782              		.global	HAL_TIM_ConfigOCrefClear
 1783              		.thumb
 1784              		.thumb_func
 1786              	HAL_TIM_ConfigOCrefClear:
 1787              		@ args = 0, pretend = 0, frame = 0
 1788              		@ frame_needed = 0, uses_anonymous_args = 0
 1789 0000 90F83830 		ldrb	r3, [r0, #56]	@ zero_extendqisi2
 1790 0004 70B5     		push	{r4, r5, r6, lr}
 1791 0006 012B     		cmp	r3, #1
 1792 0008 4FF00203 		mov	r3, #2
 1793 000c 59D0     		beq	.L234
 1794 000e 80F83930 		strb	r3, [r0, #57]
 1795 0012 4B68     		ldr	r3, [r1, #4]
 1796 0014 0124     		movs	r4, #1
 1797 0016 80F83840 		strb	r4, [r0, #56]
ARM GAS  /tmp/cciUsAoE.s 			page 31


 1798 001a 93B1     		cbz	r3, .L222
 1799 001c A342     		cmp	r3, r4
 1800 001e 12D1     		bne	.L221
 1801 0020 0568     		ldr	r5, [r0]
 1802 0022 8E68     		ldr	r6, [r1, #8]
 1803 0024 AC68     		ldr	r4, [r5, #8]
 1804 0026 CB68     		ldr	r3, [r1, #12]
 1805 0028 24F47F44 		bic	r4, r4, #65280
 1806 002c 3343     		orrs	r3, r3, r6
 1807 002e 2343     		orrs	r3, r3, r4
 1808 0030 0C69     		ldr	r4, [r1, #16]
 1809 0032 43EA0423 		orr	r3, r3, r4, lsl #8
 1810 0036 AB60     		str	r3, [r5, #8]
 1811 0038 AB68     		ldr	r3, [r5, #8]
 1812 003a 43F00803 		orr	r3, r3, #8
 1813 003e AB60     		str	r3, [r5, #8]
 1814 0040 01E0     		b	.L221
 1815              	.L222:
 1816 0042 0468     		ldr	r4, [r0]
 1817 0044 A360     		str	r3, [r4, #8]
 1818              	.L221:
 1819 0046 0C2A     		cmp	r2, #12
 1820 0048 35D8     		bhi	.L224
 1821 004a DFE802F0 		tbb	[pc, r2]
 1822              	.L226:
 1823 004e 07       		.byte	(.L225-.L226)/2
 1824 004f 34       		.byte	(.L224-.L226)/2
 1825 0050 34       		.byte	(.L224-.L226)/2
 1826 0051 34       		.byte	(.L224-.L226)/2
 1827 0052 12       		.byte	(.L227-.L226)/2
 1828 0053 34       		.byte	(.L224-.L226)/2
 1829 0054 34       		.byte	(.L224-.L226)/2
 1830 0055 34       		.byte	(.L224-.L226)/2
 1831 0056 1E       		.byte	(.L228-.L226)/2
 1832 0057 34       		.byte	(.L224-.L226)/2
 1833 0058 34       		.byte	(.L224-.L226)/2
 1834 0059 34       		.byte	(.L224-.L226)/2
 1835 005a 29       		.byte	(.L229-.L226)/2
 1836 005b 00       		.p2align 1
 1837              	.L225:
 1838 005c 0A68     		ldr	r2, [r1]
 1839 005e 0368     		ldr	r3, [r0]
 1840 0060 1AB1     		cbz	r2, .L230
 1841 0062 9A69     		ldr	r2, [r3, #24]
 1842 0064 42F08002 		orr	r2, r2, #128
 1843 0068 09E0     		b	.L235
 1844              	.L230:
 1845 006a 9A69     		ldr	r2, [r3, #24]
 1846 006c 22F08002 		bic	r2, r2, #128
 1847 0070 05E0     		b	.L235
 1848              	.L227:
 1849 0072 0A68     		ldr	r2, [r1]
 1850 0074 0368     		ldr	r3, [r0]
 1851 0076 22B1     		cbz	r2, .L231
 1852 0078 9A69     		ldr	r2, [r3, #24]
 1853 007a 42F40042 		orr	r2, r2, #32768
 1854              	.L235:
ARM GAS  /tmp/cciUsAoE.s 			page 32


 1855 007e 9A61     		str	r2, [r3, #24]
 1856 0080 19E0     		b	.L224
 1857              	.L231:
 1858 0082 9A69     		ldr	r2, [r3, #24]
 1859 0084 22F40042 		bic	r2, r2, #32768
 1860 0088 F9E7     		b	.L235
 1861              	.L228:
 1862 008a 0A68     		ldr	r2, [r1]
 1863 008c 0368     		ldr	r3, [r0]
 1864 008e 1AB1     		cbz	r2, .L232
 1865 0090 DA69     		ldr	r2, [r3, #28]
 1866 0092 42F08002 		orr	r2, r2, #128
 1867 0096 0DE0     		b	.L236
 1868              	.L232:
 1869 0098 DA69     		ldr	r2, [r3, #28]
 1870 009a 22F08002 		bic	r2, r2, #128
 1871 009e 09E0     		b	.L236
 1872              	.L229:
 1873 00a0 0A68     		ldr	r2, [r1]
 1874 00a2 0368     		ldr	r3, [r0]
 1875 00a4 1AB1     		cbz	r2, .L233
 1876 00a6 DA69     		ldr	r2, [r3, #28]
 1877 00a8 42F40042 		orr	r2, r2, #32768
 1878 00ac 02E0     		b	.L236
 1879              	.L233:
 1880 00ae DA69     		ldr	r2, [r3, #28]
 1881 00b0 22F40042 		bic	r2, r2, #32768
 1882              	.L236:
 1883 00b4 DA61     		str	r2, [r3, #28]
 1884              	.L224:
 1885 00b6 0123     		movs	r3, #1
 1886 00b8 80F83930 		strb	r3, [r0, #57]
 1887 00bc 0023     		movs	r3, #0
 1888 00be 80F83830 		strb	r3, [r0, #56]
 1889              	.L234:
 1890 00c2 1846     		mov	r0, r3
 1891 00c4 70BD     		pop	{r4, r5, r6, pc}
 1893              		.section	.text.HAL_TIM_ConfigClockSource,"ax",%progbits
 1894              		.align	1
 1895              		.global	HAL_TIM_ConfigClockSource
 1896              		.thumb
 1897              		.thumb_func
 1899              	HAL_TIM_ConfigClockSource:
 1900              		@ args = 0, pretend = 0, frame = 0
 1901              		@ frame_needed = 0, uses_anonymous_args = 0
 1902 0000 90F83830 		ldrb	r3, [r0, #56]	@ zero_extendqisi2
 1903 0004 70B5     		push	{r4, r5, r6, lr}
 1904 0006 012B     		cmp	r3, #1
 1905 0008 4FF00203 		mov	r3, #2
 1906 000c 00F0B080 		beq	.L253
 1907 0010 80F83930 		strb	r3, [r0, #57]
 1908 0014 0368     		ldr	r3, [r0]
 1909 0016 0122     		movs	r2, #1
 1910 0018 80F83820 		strb	r2, [r0, #56]
 1911 001c 9A68     		ldr	r2, [r3, #8]
 1912 001e 22F47F42 		bic	r2, r2, #65280
 1913 0022 22F07702 		bic	r2, r2, #119
ARM GAS  /tmp/cciUsAoE.s 			page 33


 1914 0026 9A60     		str	r2, [r3, #8]
 1915 0028 0A68     		ldr	r2, [r1]
 1916 002a 402A     		cmp	r2, #64
 1917 002c 77D0     		beq	.L240
 1918 002e 18D8     		bhi	.L241
 1919 0030 102A     		cmp	r2, #16
 1920 0032 00F08B80 		beq	.L242
 1921 0036 08D8     		bhi	.L243
 1922 0038 002A     		cmp	r2, #0
 1923 003a 40F09380 		bne	.L239
 1924 003e 9A68     		ldr	r2, [r3, #8]
 1925 0040 22F07002 		bic	r2, r2, #112
 1926 0044 42F00702 		orr	r2, r2, #7
 1927 0048 8BE0     		b	.L254
 1928              	.L243:
 1929 004a 202A     		cmp	r2, #32
 1930 004c 00F08480 		beq	.L245
 1931 0050 302A     		cmp	r2, #48
 1932 0052 40F08780 		bne	.L239
 1933 0056 9A68     		ldr	r2, [r3, #8]
 1934 0058 22F07002 		bic	r2, r2, #112
 1935 005c 42F03702 		orr	r2, r2, #55
 1936 0060 7FE0     		b	.L254
 1937              	.L241:
 1938 0062 702A     		cmp	r2, #112
 1939 0064 35D0     		beq	.L247
 1940 0066 1BD8     		bhi	.L248
 1941 0068 502A     		cmp	r2, #80
 1942 006a 41D0     		beq	.L249
 1943 006c 602A     		cmp	r2, #96
 1944 006e 79D1     		bne	.L239
 1945 0070 1C6A     		ldr	r4, [r3, #32]
 1946 0072 4D68     		ldr	r5, [r1, #4]
 1947 0074 24F01004 		bic	r4, r4, #16
 1948 0078 CE68     		ldr	r6, [r1, #12]
 1949 007a 1C62     		str	r4, [r3, #32]
 1950 007c 9969     		ldr	r1, [r3, #24]
 1951 007e 1A6A     		ldr	r2, [r3, #32]
 1952 0080 21F47041 		bic	r1, r1, #61440
 1953 0084 22F0A002 		bic	r2, r2, #160
 1954 0088 42EA0512 		orr	r2, r2, r5, lsl #4
 1955 008c 41EA0631 		orr	r1, r1, r6, lsl #12
 1956 0090 9961     		str	r1, [r3, #24]
 1957 0092 1A62     		str	r2, [r3, #32]
 1958 0094 9A68     		ldr	r2, [r3, #8]
 1959 0096 22F07002 		bic	r2, r2, #112
 1960 009a 42F06702 		orr	r2, r2, #103
 1961 009e 60E0     		b	.L254
 1962              	.L248:
 1963 00a0 B2F5805F 		cmp	r2, #4096
 1964 00a4 11D0     		beq	.L251
 1965 00a6 B2F5005F 		cmp	r2, #8192
 1966 00aa 5BD1     		bne	.L239
 1967 00ac 9C68     		ldr	r4, [r3, #8]
 1968 00ae 4D68     		ldr	r5, [r1, #4]
 1969 00b0 8A68     		ldr	r2, [r1, #8]
 1970 00b2 24F47F44 		bic	r4, r4, #65280
ARM GAS  /tmp/cciUsAoE.s 			page 34


 1971 00b6 C968     		ldr	r1, [r1, #12]
 1972 00b8 2A43     		orrs	r2, r2, r5
 1973 00ba 2243     		orrs	r2, r2, r4
 1974 00bc 42EA0122 		orr	r2, r2, r1, lsl #8
 1975 00c0 9A60     		str	r2, [r3, #8]
 1976 00c2 9A68     		ldr	r2, [r3, #8]
 1977 00c4 42F48042 		orr	r2, r2, #16384
 1978 00c8 4BE0     		b	.L254
 1979              	.L251:
 1980 00ca 9A68     		ldr	r2, [r3, #8]
 1981 00cc 22F00702 		bic	r2, r2, #7
 1982 00d0 47E0     		b	.L254
 1983              	.L247:
 1984 00d2 9C68     		ldr	r4, [r3, #8]
 1985 00d4 4D68     		ldr	r5, [r1, #4]
 1986 00d6 8A68     		ldr	r2, [r1, #8]
 1987 00d8 24F47F44 		bic	r4, r4, #65280
 1988 00dc C968     		ldr	r1, [r1, #12]
 1989 00de 2A43     		orrs	r2, r2, r5
 1990 00e0 2243     		orrs	r2, r2, r4
 1991 00e2 42EA0122 		orr	r2, r2, r1, lsl #8
 1992 00e6 9A60     		str	r2, [r3, #8]
 1993 00e8 9A68     		ldr	r2, [r3, #8]
 1994 00ea 42F07702 		orr	r2, r2, #119
 1995 00ee 38E0     		b	.L254
 1996              	.L249:
 1997 00f0 4C68     		ldr	r4, [r1, #4]
 1998 00f2 CE68     		ldr	r6, [r1, #12]
 1999 00f4 196A     		ldr	r1, [r3, #32]
 2000 00f6 1D6A     		ldr	r5, [r3, #32]
 2001 00f8 21F00A01 		bic	r1, r1, #10
 2002 00fc 25F00105 		bic	r5, r5, #1
 2003 0100 1D62     		str	r5, [r3, #32]
 2004 0102 9A69     		ldr	r2, [r3, #24]
 2005 0104 2143     		orrs	r1, r1, r4
 2006 0106 22F0F002 		bic	r2, r2, #240
 2007 010a 42EA0612 		orr	r2, r2, r6, lsl #4
 2008 010e 9A61     		str	r2, [r3, #24]
 2009 0110 1962     		str	r1, [r3, #32]
 2010 0112 9A68     		ldr	r2, [r3, #8]
 2011 0114 22F07002 		bic	r2, r2, #112
 2012 0118 42F05702 		orr	r2, r2, #87
 2013 011c 21E0     		b	.L254
 2014              	.L240:
 2015 011e 4C68     		ldr	r4, [r1, #4]
 2016 0120 CE68     		ldr	r6, [r1, #12]
 2017 0122 196A     		ldr	r1, [r3, #32]
 2018 0124 1D6A     		ldr	r5, [r3, #32]
 2019 0126 21F00A01 		bic	r1, r1, #10
 2020 012a 25F00105 		bic	r5, r5, #1
 2021 012e 1D62     		str	r5, [r3, #32]
 2022 0130 9A69     		ldr	r2, [r3, #24]
 2023 0132 2143     		orrs	r1, r1, r4
 2024 0134 22F0F002 		bic	r2, r2, #240
 2025 0138 42EA0612 		orr	r2, r2, r6, lsl #4
 2026 013c 9A61     		str	r2, [r3, #24]
 2027 013e 1962     		str	r1, [r3, #32]
ARM GAS  /tmp/cciUsAoE.s 			page 35


 2028 0140 9A68     		ldr	r2, [r3, #8]
 2029 0142 22F07002 		bic	r2, r2, #112
 2030 0146 42F04702 		orr	r2, r2, #71
 2031 014a 0AE0     		b	.L254
 2032              	.L242:
 2033 014c 9A68     		ldr	r2, [r3, #8]
 2034 014e 22F07002 		bic	r2, r2, #112
 2035 0152 42F01702 		orr	r2, r2, #23
 2036 0156 04E0     		b	.L254
 2037              	.L245:
 2038 0158 9A68     		ldr	r2, [r3, #8]
 2039 015a 22F07002 		bic	r2, r2, #112
 2040 015e 42F02702 		orr	r2, r2, #39
 2041              	.L254:
 2042 0162 9A60     		str	r2, [r3, #8]
 2043              	.L239:
 2044 0164 0123     		movs	r3, #1
 2045 0166 80F83930 		strb	r3, [r0, #57]
 2046 016a 0023     		movs	r3, #0
 2047 016c 80F83830 		strb	r3, [r0, #56]
 2048              	.L253:
 2049 0170 1846     		mov	r0, r3
 2050 0172 70BD     		pop	{r4, r5, r6, pc}
 2052              		.section	.text.HAL_TIM_ConfigTI1Input,"ax",%progbits
 2053              		.align	1
 2054              		.global	HAL_TIM_ConfigTI1Input
 2055              		.thumb
 2056              		.thumb_func
 2058              	HAL_TIM_ConfigTI1Input:
 2059              		@ args = 0, pretend = 0, frame = 0
 2060              		@ frame_needed = 0, uses_anonymous_args = 0
 2061              		@ link register save eliminated.
 2062 0000 0268     		ldr	r2, [r0]
 2063 0002 0020     		movs	r0, #0
 2064 0004 5368     		ldr	r3, [r2, #4]
 2065 0006 23F08003 		bic	r3, r3, #128
 2066 000a 1943     		orrs	r1, r1, r3
 2067 000c 5160     		str	r1, [r2, #4]
 2068 000e 7047     		bx	lr
 2070              		.section	.text.HAL_TIM_SlaveConfigSynchronization,"ax",%progbits
 2071              		.align	1
 2072              		.global	HAL_TIM_SlaveConfigSynchronization
 2073              		.thumb
 2074              		.thumb_func
 2076              	HAL_TIM_SlaveConfigSynchronization:
 2077              		@ args = 0, pretend = 0, frame = 0
 2078              		@ frame_needed = 0, uses_anonymous_args = 0
 2079 0000 38B5     		push	{r3, r4, r5, lr}
 2080 0002 90F83830 		ldrb	r3, [r0, #56]	@ zero_extendqisi2
 2081 0006 0446     		mov	r4, r0
 2082 0008 012B     		cmp	r3, #1
 2083 000a 4FF00203 		mov	r3, #2
 2084 000e 15D0     		beq	.L258
 2085 0010 0125     		movs	r5, #1
 2086 0012 80F83850 		strb	r5, [r0, #56]
 2087 0016 80F83930 		strb	r3, [r0, #57]
 2088 001a FFF7FEFF 		bl	TIM_SlaveTimer_SetConfig
ARM GAS  /tmp/cciUsAoE.s 			page 36


 2089 001e 2368     		ldr	r3, [r4]
 2090 0020 0020     		movs	r0, #0
 2091 0022 DA68     		ldr	r2, [r3, #12]
 2092 0024 22F04002 		bic	r2, r2, #64
 2093 0028 DA60     		str	r2, [r3, #12]
 2094 002a DA68     		ldr	r2, [r3, #12]
 2095 002c 22F48042 		bic	r2, r2, #16384
 2096 0030 DA60     		str	r2, [r3, #12]
 2097 0032 84F83950 		strb	r5, [r4, #57]
 2098 0036 84F83800 		strb	r0, [r4, #56]
 2099 003a 38BD     		pop	{r3, r4, r5, pc}
 2100              	.L258:
 2101 003c 1846     		mov	r0, r3
 2102 003e 38BD     		pop	{r3, r4, r5, pc}
 2104              		.section	.text.HAL_TIM_SlaveConfigSynchronization_IT,"ax",%progbits
 2105              		.align	1
 2106              		.global	HAL_TIM_SlaveConfigSynchronization_IT
 2107              		.thumb
 2108              		.thumb_func
 2110              	HAL_TIM_SlaveConfigSynchronization_IT:
 2111              		@ args = 0, pretend = 0, frame = 0
 2112              		@ frame_needed = 0, uses_anonymous_args = 0
 2113 0000 38B5     		push	{r3, r4, r5, lr}
 2114 0002 90F83830 		ldrb	r3, [r0, #56]	@ zero_extendqisi2
 2115 0006 0446     		mov	r4, r0
 2116 0008 012B     		cmp	r3, #1
 2117 000a 4FF00203 		mov	r3, #2
 2118 000e 15D0     		beq	.L261
 2119 0010 0125     		movs	r5, #1
 2120 0012 80F83850 		strb	r5, [r0, #56]
 2121 0016 80F83930 		strb	r3, [r0, #57]
 2122 001a FFF7FEFF 		bl	TIM_SlaveTimer_SetConfig
 2123 001e 2368     		ldr	r3, [r4]
 2124 0020 0020     		movs	r0, #0
 2125 0022 DA68     		ldr	r2, [r3, #12]
 2126 0024 42F04002 		orr	r2, r2, #64
 2127 0028 DA60     		str	r2, [r3, #12]
 2128 002a DA68     		ldr	r2, [r3, #12]
 2129 002c 22F48042 		bic	r2, r2, #16384
 2130 0030 DA60     		str	r2, [r3, #12]
 2131 0032 84F83950 		strb	r5, [r4, #57]
 2132 0036 84F83800 		strb	r0, [r4, #56]
 2133 003a 38BD     		pop	{r3, r4, r5, pc}
 2134              	.L261:
 2135 003c 1846     		mov	r0, r3
 2136 003e 38BD     		pop	{r3, r4, r5, pc}
 2138              		.section	.text.HAL_TIM_ReadCapturedValue,"ax",%progbits
 2139              		.align	1
 2140              		.global	HAL_TIM_ReadCapturedValue
 2141              		.thumb
 2142              		.thumb_func
 2144              	HAL_TIM_ReadCapturedValue:
 2145              		@ args = 0, pretend = 0, frame = 0
 2146              		@ frame_needed = 0, uses_anonymous_args = 0
 2147              		@ link register save eliminated.
 2148 0000 90F83830 		ldrb	r3, [r0, #56]	@ zero_extendqisi2
 2149 0004 012B     		cmp	r3, #1
ARM GAS  /tmp/cciUsAoE.s 			page 37


 2150 0006 1CD0     		beq	.L270
 2151 0008 0C29     		cmp	r1, #12
 2152 000a 14D8     		bhi	.L271
 2153 000c DFE801F0 		tbb	[pc, r1]
 2154              	.L266:
 2155 0010 07       		.byte	(.L265-.L266)/2
 2156 0011 13       		.byte	(.L271-.L266)/2
 2157 0012 13       		.byte	(.L271-.L266)/2
 2158 0013 13       		.byte	(.L271-.L266)/2
 2159 0014 0A       		.byte	(.L267-.L266)/2
 2160 0015 13       		.byte	(.L271-.L266)/2
 2161 0016 13       		.byte	(.L271-.L266)/2
 2162 0017 13       		.byte	(.L271-.L266)/2
 2163 0018 0D       		.byte	(.L268-.L266)/2
 2164 0019 13       		.byte	(.L271-.L266)/2
 2165 001a 13       		.byte	(.L271-.L266)/2
 2166 001b 13       		.byte	(.L271-.L266)/2
 2167 001c 10       		.byte	(.L269-.L266)/2
 2168 001d 00       		.p2align 1
 2169              	.L265:
 2170 001e 0368     		ldr	r3, [r0]
 2171 0020 5B6B     		ldr	r3, [r3, #52]
 2172 0022 09E0     		b	.L264
 2173              	.L267:
 2174 0024 0368     		ldr	r3, [r0]
 2175 0026 9B6B     		ldr	r3, [r3, #56]
 2176 0028 06E0     		b	.L264
 2177              	.L268:
 2178 002a 0368     		ldr	r3, [r0]
 2179 002c DB6B     		ldr	r3, [r3, #60]
 2180 002e 03E0     		b	.L264
 2181              	.L269:
 2182 0030 0368     		ldr	r3, [r0]
 2183 0032 1B6C     		ldr	r3, [r3, #64]
 2184 0034 00E0     		b	.L264
 2185              	.L271:
 2186 0036 0023     		movs	r3, #0
 2187              	.L264:
 2188 0038 0022     		movs	r2, #0
 2189 003a 80F83820 		strb	r2, [r0, #56]
 2190 003e 1846     		mov	r0, r3
 2191 0040 7047     		bx	lr
 2192              	.L270:
 2193 0042 0220     		movs	r0, #2
 2194 0044 7047     		bx	lr
 2196              		.section	.text.HAL_TIM_PeriodElapsedCallback,"ax",%progbits
 2197              		.align	1
 2198              		.weak	HAL_TIM_PeriodElapsedCallback
 2199              		.thumb
 2200              		.thumb_func
 2202              	HAL_TIM_PeriodElapsedCallback:
 2203              		@ args = 0, pretend = 0, frame = 0
 2204              		@ frame_needed = 0, uses_anonymous_args = 0
 2205              		@ link register save eliminated.
 2206 0000 7047     		bx	lr
 2208              		.section	.text.TIM_DMAPeriodElapsedCplt,"ax",%progbits
 2209              		.align	1
ARM GAS  /tmp/cciUsAoE.s 			page 38


 2210              		.thumb
 2211              		.thumb_func
 2213              	TIM_DMAPeriodElapsedCplt:
 2214              		@ args = 0, pretend = 0, frame = 0
 2215              		@ frame_needed = 0, uses_anonymous_args = 0
 2216 0000 08B5     		push	{r3, lr}
 2217 0002 406A     		ldr	r0, [r0, #36]
 2218 0004 0123     		movs	r3, #1
 2219 0006 80F83930 		strb	r3, [r0, #57]
 2220 000a FFF7FEFF 		bl	HAL_TIM_PeriodElapsedCallback
 2221 000e 08BD     		pop	{r3, pc}
 2223              		.section	.text.HAL_TIM_OC_DelayElapsedCallback,"ax",%progbits
 2224              		.align	1
 2225              		.weak	HAL_TIM_OC_DelayElapsedCallback
 2226              		.thumb
 2227              		.thumb_func
 2229              	HAL_TIM_OC_DelayElapsedCallback:
 2230              		@ args = 0, pretend = 0, frame = 0
 2231              		@ frame_needed = 0, uses_anonymous_args = 0
 2232              		@ link register save eliminated.
 2233 0000 7047     		bx	lr
 2235              		.section	.text.HAL_TIM_IC_CaptureCallback,"ax",%progbits
 2236              		.align	1
 2237              		.weak	HAL_TIM_IC_CaptureCallback
 2238              		.thumb
 2239              		.thumb_func
 2241              	HAL_TIM_IC_CaptureCallback:
 2242              		@ args = 0, pretend = 0, frame = 0
 2243              		@ frame_needed = 0, uses_anonymous_args = 0
 2244              		@ link register save eliminated.
 2245 0000 7047     		bx	lr
 2247              		.section	.text.TIM_DMACaptureCplt,"ax",%progbits
 2248              		.align	1
 2249              		.global	TIM_DMACaptureCplt
 2250              		.thumb
 2251              		.thumb_func
 2253              	TIM_DMACaptureCplt:
 2254              		@ args = 0, pretend = 0, frame = 0
 2255              		@ frame_needed = 0, uses_anonymous_args = 0
 2256 0000 10B5     		push	{r4, lr}
 2257 0002 446A     		ldr	r4, [r0, #36]
 2258 0004 0123     		movs	r3, #1
 2259 0006 226A     		ldr	r2, [r4, #32]
 2260 0008 84F83930 		strb	r3, [r4, #57]
 2261 000c 9042     		cmp	r0, r2
 2262 000e 0DD0     		beq	.L281
 2263 0010 636A     		ldr	r3, [r4, #36]
 2264 0012 9842     		cmp	r0, r3
 2265 0014 01D1     		bne	.L279
 2266 0016 0223     		movs	r3, #2
 2267 0018 08E0     		b	.L281
 2268              	.L279:
 2269 001a A36A     		ldr	r3, [r4, #40]
 2270 001c 9842     		cmp	r0, r3
 2271 001e 01D1     		bne	.L280
 2272 0020 0423     		movs	r3, #4
 2273 0022 03E0     		b	.L281
ARM GAS  /tmp/cciUsAoE.s 			page 39


 2274              	.L280:
 2275 0024 E36A     		ldr	r3, [r4, #44]
 2276 0026 9842     		cmp	r0, r3
 2277 0028 01D1     		bne	.L278
 2278 002a 0823     		movs	r3, #8
 2279              	.L281:
 2280 002c 2376     		strb	r3, [r4, #24]
 2281              	.L278:
 2282 002e 2046     		mov	r0, r4
 2283 0030 FFF7FEFF 		bl	HAL_TIM_IC_CaptureCallback
 2284 0034 0023     		movs	r3, #0
 2285 0036 2376     		strb	r3, [r4, #24]
 2286 0038 10BD     		pop	{r4, pc}
 2288              		.section	.text.HAL_TIM_PWM_PulseFinishedCallback,"ax",%progbits
 2289              		.align	1
 2290              		.weak	HAL_TIM_PWM_PulseFinishedCallback
 2291              		.thumb
 2292              		.thumb_func
 2294              	HAL_TIM_PWM_PulseFinishedCallback:
 2295              		@ args = 0, pretend = 0, frame = 0
 2296              		@ frame_needed = 0, uses_anonymous_args = 0
 2297              		@ link register save eliminated.
 2298 0000 7047     		bx	lr
 2300              		.section	.text.TIM_DMADelayPulseCplt,"ax",%progbits
 2301              		.align	1
 2302              		.global	TIM_DMADelayPulseCplt
 2303              		.thumb
 2304              		.thumb_func
 2306              	TIM_DMADelayPulseCplt:
 2307              		@ args = 0, pretend = 0, frame = 0
 2308              		@ frame_needed = 0, uses_anonymous_args = 0
 2309 0000 10B5     		push	{r4, lr}
 2310 0002 446A     		ldr	r4, [r0, #36]
 2311 0004 0123     		movs	r3, #1
 2312 0006 226A     		ldr	r2, [r4, #32]
 2313 0008 84F83930 		strb	r3, [r4, #57]
 2314 000c 9042     		cmp	r0, r2
 2315 000e 0DD0     		beq	.L288
 2316 0010 636A     		ldr	r3, [r4, #36]
 2317 0012 9842     		cmp	r0, r3
 2318 0014 01D1     		bne	.L286
 2319 0016 0223     		movs	r3, #2
 2320 0018 08E0     		b	.L288
 2321              	.L286:
 2322 001a A36A     		ldr	r3, [r4, #40]
 2323 001c 9842     		cmp	r0, r3
 2324 001e 01D1     		bne	.L287
 2325 0020 0423     		movs	r3, #4
 2326 0022 03E0     		b	.L288
 2327              	.L287:
 2328 0024 E36A     		ldr	r3, [r4, #44]
 2329 0026 9842     		cmp	r0, r3
 2330 0028 01D1     		bne	.L285
 2331 002a 0823     		movs	r3, #8
 2332              	.L288:
 2333 002c 2376     		strb	r3, [r4, #24]
 2334              	.L285:
ARM GAS  /tmp/cciUsAoE.s 			page 40


 2335 002e 2046     		mov	r0, r4
 2336 0030 FFF7FEFF 		bl	HAL_TIM_PWM_PulseFinishedCallback
 2337 0034 0023     		movs	r3, #0
 2338 0036 2376     		strb	r3, [r4, #24]
 2339 0038 10BD     		pop	{r4, pc}
 2341              		.section	.text.HAL_TIM_TriggerCallback,"ax",%progbits
 2342              		.align	1
 2343              		.weak	HAL_TIM_TriggerCallback
 2344              		.thumb
 2345              		.thumb_func
 2347              	HAL_TIM_TriggerCallback:
 2348              		@ args = 0, pretend = 0, frame = 0
 2349              		@ frame_needed = 0, uses_anonymous_args = 0
 2350              		@ link register save eliminated.
 2351 0000 7047     		bx	lr
 2353              		.section	.text.HAL_TIM_IRQHandler,"ax",%progbits
 2354              		.align	1
 2355              		.global	HAL_TIM_IRQHandler
 2356              		.thumb
 2357              		.thumb_func
 2359              	HAL_TIM_IRQHandler:
 2360              		@ args = 0, pretend = 0, frame = 0
 2361              		@ frame_needed = 0, uses_anonymous_args = 0
 2362 0000 0368     		ldr	r3, [r0]
 2363 0002 10B5     		push	{r4, lr}
 2364 0004 1A69     		ldr	r2, [r3, #16]
 2365 0006 0446     		mov	r4, r0
 2366 0008 9107     		lsls	r1, r2, #30
 2367 000a 14D5     		bpl	.L291
 2368 000c DA68     		ldr	r2, [r3, #12]
 2369 000e 9207     		lsls	r2, r2, #30
 2370 0010 11D5     		bpl	.L291
 2371 0012 6FF00202 		mvn	r2, #2
 2372 0016 1A61     		str	r2, [r3, #16]
 2373 0018 9B69     		ldr	r3, [r3, #24]
 2374 001a 0122     		movs	r2, #1
 2375 001c 9B07     		lsls	r3, r3, #30
 2376 001e 0276     		strb	r2, [r0, #24]
 2377 0020 02D0     		beq	.L292
 2378 0022 FFF7FEFF 		bl	HAL_TIM_IC_CaptureCallback
 2379 0026 04E0     		b	.L293
 2380              	.L292:
 2381 0028 FFF7FEFF 		bl	HAL_TIM_OC_DelayElapsedCallback
 2382 002c 2046     		mov	r0, r4
 2383 002e FFF7FEFF 		bl	HAL_TIM_PWM_PulseFinishedCallback
 2384              	.L293:
 2385 0032 0023     		movs	r3, #0
 2386 0034 2376     		strb	r3, [r4, #24]
 2387              	.L291:
 2388 0036 2368     		ldr	r3, [r4]
 2389 0038 1A69     		ldr	r2, [r3, #16]
 2390 003a 5007     		lsls	r0, r2, #29
 2391 003c 16D5     		bpl	.L294
 2392 003e DA68     		ldr	r2, [r3, #12]
 2393 0040 5107     		lsls	r1, r2, #29
 2394 0042 13D5     		bpl	.L294
 2395 0044 6FF00402 		mvn	r2, #4
ARM GAS  /tmp/cciUsAoE.s 			page 41


 2396 0048 1A61     		str	r2, [r3, #16]
 2397 004a 9B69     		ldr	r3, [r3, #24]
 2398 004c 0222     		movs	r2, #2
 2399 004e 13F4407F 		tst	r3, #768
 2400 0052 2276     		strb	r2, [r4, #24]
 2401 0054 2046     		mov	r0, r4
 2402 0056 02D0     		beq	.L295
 2403 0058 FFF7FEFF 		bl	HAL_TIM_IC_CaptureCallback
 2404 005c 04E0     		b	.L296
 2405              	.L295:
 2406 005e FFF7FEFF 		bl	HAL_TIM_OC_DelayElapsedCallback
 2407 0062 2046     		mov	r0, r4
 2408 0064 FFF7FEFF 		bl	HAL_TIM_PWM_PulseFinishedCallback
 2409              	.L296:
 2410 0068 0023     		movs	r3, #0
 2411 006a 2376     		strb	r3, [r4, #24]
 2412              	.L294:
 2413 006c 2368     		ldr	r3, [r4]
 2414 006e 1A69     		ldr	r2, [r3, #16]
 2415 0070 1207     		lsls	r2, r2, #28
 2416 0072 15D5     		bpl	.L297
 2417 0074 DA68     		ldr	r2, [r3, #12]
 2418 0076 1007     		lsls	r0, r2, #28
 2419 0078 12D5     		bpl	.L297
 2420 007a 6FF00802 		mvn	r2, #8
 2421 007e 1A61     		str	r2, [r3, #16]
 2422 0080 DB69     		ldr	r3, [r3, #28]
 2423 0082 0422     		movs	r2, #4
 2424 0084 9907     		lsls	r1, r3, #30
 2425 0086 2276     		strb	r2, [r4, #24]
 2426 0088 2046     		mov	r0, r4
 2427 008a 02D0     		beq	.L298
 2428 008c FFF7FEFF 		bl	HAL_TIM_IC_CaptureCallback
 2429 0090 04E0     		b	.L299
 2430              	.L298:
 2431 0092 FFF7FEFF 		bl	HAL_TIM_OC_DelayElapsedCallback
 2432 0096 2046     		mov	r0, r4
 2433 0098 FFF7FEFF 		bl	HAL_TIM_PWM_PulseFinishedCallback
 2434              	.L299:
 2435 009c 0023     		movs	r3, #0
 2436 009e 2376     		strb	r3, [r4, #24]
 2437              	.L297:
 2438 00a0 2368     		ldr	r3, [r4]
 2439 00a2 1A69     		ldr	r2, [r3, #16]
 2440 00a4 D206     		lsls	r2, r2, #27
 2441 00a6 16D5     		bpl	.L300
 2442 00a8 DA68     		ldr	r2, [r3, #12]
 2443 00aa D006     		lsls	r0, r2, #27
 2444 00ac 13D5     		bpl	.L300
 2445 00ae 6FF01002 		mvn	r2, #16
 2446 00b2 1A61     		str	r2, [r3, #16]
 2447 00b4 DB69     		ldr	r3, [r3, #28]
 2448 00b6 0822     		movs	r2, #8
 2449 00b8 13F4407F 		tst	r3, #768
 2450 00bc 2276     		strb	r2, [r4, #24]
 2451 00be 2046     		mov	r0, r4
 2452 00c0 02D0     		beq	.L301
ARM GAS  /tmp/cciUsAoE.s 			page 42


 2453 00c2 FFF7FEFF 		bl	HAL_TIM_IC_CaptureCallback
 2454 00c6 04E0     		b	.L302
 2455              	.L301:
 2456 00c8 FFF7FEFF 		bl	HAL_TIM_OC_DelayElapsedCallback
 2457 00cc 2046     		mov	r0, r4
 2458 00ce FFF7FEFF 		bl	HAL_TIM_PWM_PulseFinishedCallback
 2459              	.L302:
 2460 00d2 0023     		movs	r3, #0
 2461 00d4 2376     		strb	r3, [r4, #24]
 2462              	.L300:
 2463 00d6 2368     		ldr	r3, [r4]
 2464 00d8 1A69     		ldr	r2, [r3, #16]
 2465 00da D107     		lsls	r1, r2, #31
 2466 00dc 08D5     		bpl	.L303
 2467 00de DA68     		ldr	r2, [r3, #12]
 2468 00e0 D207     		lsls	r2, r2, #31
 2469 00e2 05D5     		bpl	.L303
 2470 00e4 6FF00102 		mvn	r2, #1
 2471 00e8 1A61     		str	r2, [r3, #16]
 2472 00ea 2046     		mov	r0, r4
 2473 00ec FFF7FEFF 		bl	HAL_TIM_PeriodElapsedCallback
 2474              	.L303:
 2475 00f0 2368     		ldr	r3, [r4]
 2476 00f2 1A69     		ldr	r2, [r3, #16]
 2477 00f4 1006     		lsls	r0, r2, #24
 2478 00f6 08D5     		bpl	.L304
 2479 00f8 DA68     		ldr	r2, [r3, #12]
 2480 00fa 1106     		lsls	r1, r2, #24
 2481 00fc 05D5     		bpl	.L304
 2482 00fe 6FF08002 		mvn	r2, #128
 2483 0102 1A61     		str	r2, [r3, #16]
 2484 0104 2046     		mov	r0, r4
 2485 0106 FFF7FEFF 		bl	HAL_TIMEx_BreakCallback
 2486              	.L304:
 2487 010a 2368     		ldr	r3, [r4]
 2488 010c 1A69     		ldr	r2, [r3, #16]
 2489 010e 5206     		lsls	r2, r2, #25
 2490 0110 08D5     		bpl	.L305
 2491 0112 DA68     		ldr	r2, [r3, #12]
 2492 0114 5006     		lsls	r0, r2, #25
 2493 0116 05D5     		bpl	.L305
 2494 0118 6FF04002 		mvn	r2, #64
 2495 011c 1A61     		str	r2, [r3, #16]
 2496 011e 2046     		mov	r0, r4
 2497 0120 FFF7FEFF 		bl	HAL_TIM_TriggerCallback
 2498              	.L305:
 2499 0124 2368     		ldr	r3, [r4]
 2500 0126 1A69     		ldr	r2, [r3, #16]
 2501 0128 9106     		lsls	r1, r2, #26
 2502 012a 0AD5     		bpl	.L290
 2503 012c DA68     		ldr	r2, [r3, #12]
 2504 012e 9206     		lsls	r2, r2, #26
 2505 0130 07D5     		bpl	.L290
 2506 0132 6FF02002 		mvn	r2, #32
 2507 0136 2046     		mov	r0, r4
 2508 0138 BDE81040 		pop	{r4, lr}
 2509 013c 1A61     		str	r2, [r3, #16]
ARM GAS  /tmp/cciUsAoE.s 			page 43


 2510 013e FFF7FEBF 		b	HAL_TIMEx_CommutationCallback
 2511              	.L290:
 2512 0142 10BD     		pop	{r4, pc}
 2514              		.section	.text.TIM_DMATriggerCplt,"ax",%progbits
 2515              		.align	1
 2516              		.thumb
 2517              		.thumb_func
 2519              	TIM_DMATriggerCplt:
 2520              		@ args = 0, pretend = 0, frame = 0
 2521              		@ frame_needed = 0, uses_anonymous_args = 0
 2522 0000 08B5     		push	{r3, lr}
 2523 0002 406A     		ldr	r0, [r0, #36]
 2524 0004 0123     		movs	r3, #1
 2525 0006 80F83930 		strb	r3, [r0, #57]
 2526 000a FFF7FEFF 		bl	HAL_TIM_TriggerCallback
 2527 000e 08BD     		pop	{r3, pc}
 2529              		.section	.text.HAL_TIM_ErrorCallback,"ax",%progbits
 2530              		.align	1
 2531              		.weak	HAL_TIM_ErrorCallback
 2532              		.thumb
 2533              		.thumb_func
 2535              	HAL_TIM_ErrorCallback:
 2536              		@ args = 0, pretend = 0, frame = 0
 2537              		@ frame_needed = 0, uses_anonymous_args = 0
 2538              		@ link register save eliminated.
 2539 0000 7047     		bx	lr
 2541              		.section	.text.TIM_DMAError,"ax",%progbits
 2542              		.align	1
 2543              		.global	TIM_DMAError
 2544              		.thumb
 2545              		.thumb_func
 2547              	TIM_DMAError:
 2548              		@ args = 0, pretend = 0, frame = 0
 2549              		@ frame_needed = 0, uses_anonymous_args = 0
 2550 0000 08B5     		push	{r3, lr}
 2551 0002 406A     		ldr	r0, [r0, #36]
 2552 0004 0123     		movs	r3, #1
 2553 0006 80F83930 		strb	r3, [r0, #57]
 2554 000a FFF7FEFF 		bl	HAL_TIM_ErrorCallback
 2555 000e 08BD     		pop	{r3, pc}
 2557              		.section	.text.HAL_TIM_Base_GetState,"ax",%progbits
 2558              		.align	1
 2559              		.global	HAL_TIM_Base_GetState
 2560              		.thumb
 2561              		.thumb_func
 2563              	HAL_TIM_Base_GetState:
 2564              		@ args = 0, pretend = 0, frame = 0
 2565              		@ frame_needed = 0, uses_anonymous_args = 0
 2566              		@ link register save eliminated.
 2567 0000 90F83900 		ldrb	r0, [r0, #57]	@ zero_extendqisi2
 2568 0004 7047     		bx	lr
 2570              		.section	.text.HAL_TIM_OC_GetState,"ax",%progbits
 2571              		.align	1
 2572              		.global	HAL_TIM_OC_GetState
 2573              		.thumb
 2574              		.thumb_func
 2576              	HAL_TIM_OC_GetState:
ARM GAS  /tmp/cciUsAoE.s 			page 44


 2577              		@ args = 0, pretend = 0, frame = 0
 2578              		@ frame_needed = 0, uses_anonymous_args = 0
 2579              		@ link register save eliminated.
 2580 0000 90F83900 		ldrb	r0, [r0, #57]	@ zero_extendqisi2
 2581 0004 7047     		bx	lr
 2583              		.section	.text.HAL_TIM_PWM_GetState,"ax",%progbits
 2584              		.align	1
 2585              		.global	HAL_TIM_PWM_GetState
 2586              		.thumb
 2587              		.thumb_func
 2589              	HAL_TIM_PWM_GetState:
 2590              		@ args = 0, pretend = 0, frame = 0
 2591              		@ frame_needed = 0, uses_anonymous_args = 0
 2592              		@ link register save eliminated.
 2593 0000 90F83900 		ldrb	r0, [r0, #57]	@ zero_extendqisi2
 2594 0004 7047     		bx	lr
 2596              		.section	.text.HAL_TIM_IC_GetState,"ax",%progbits
 2597              		.align	1
 2598              		.global	HAL_TIM_IC_GetState
 2599              		.thumb
 2600              		.thumb_func
 2602              	HAL_TIM_IC_GetState:
 2603              		@ args = 0, pretend = 0, frame = 0
 2604              		@ frame_needed = 0, uses_anonymous_args = 0
 2605              		@ link register save eliminated.
 2606 0000 90F83900 		ldrb	r0, [r0, #57]	@ zero_extendqisi2
 2607 0004 7047     		bx	lr
 2609              		.section	.text.HAL_TIM_OnePulse_GetState,"ax",%progbits
 2610              		.align	1
 2611              		.global	HAL_TIM_OnePulse_GetState
 2612              		.thumb
 2613              		.thumb_func
 2615              	HAL_TIM_OnePulse_GetState:
 2616              		@ args = 0, pretend = 0, frame = 0
 2617              		@ frame_needed = 0, uses_anonymous_args = 0
 2618              		@ link register save eliminated.
 2619 0000 90F83900 		ldrb	r0, [r0, #57]	@ zero_extendqisi2
 2620 0004 7047     		bx	lr
 2622              		.section	.text.HAL_TIM_Encoder_GetState,"ax",%progbits
 2623              		.align	1
 2624              		.global	HAL_TIM_Encoder_GetState
 2625              		.thumb
 2626              		.thumb_func
 2628              	HAL_TIM_Encoder_GetState:
 2629              		@ args = 0, pretend = 0, frame = 0
 2630              		@ frame_needed = 0, uses_anonymous_args = 0
 2631              		@ link register save eliminated.
 2632 0000 90F83900 		ldrb	r0, [r0, #57]	@ zero_extendqisi2
 2633 0004 7047     		bx	lr
 2635              		.section	.text.TIM_Base_SetConfig,"ax",%progbits
 2636              		.align	1
 2637              		.global	TIM_Base_SetConfig
 2638              		.thumb
 2639              		.thumb_func
 2641              	TIM_Base_SetConfig:
 2642              		@ args = 0, pretend = 0, frame = 0
 2643              		@ frame_needed = 0, uses_anonymous_args = 0
ARM GAS  /tmp/cciUsAoE.s 			page 45


 2644              		@ link register save eliminated.
 2645 0000 244A     		ldr	r2, .L377
 2646 0002 0368     		ldr	r3, [r0]
 2647 0004 9042     		cmp	r0, r2
 2648 0006 0AD0     		beq	.L365
 2649 0008 B0F1804F 		cmp	r0, #1073741824
 2650 000c 07D0     		beq	.L365
 2651 000e A2F59432 		sub	r2, r2, #75776
 2652 0012 9042     		cmp	r0, r2
 2653 0014 03D0     		beq	.L365
 2654 0016 02F58062 		add	r2, r2, #1024
 2655 001a 9042     		cmp	r0, r2
 2656 001c 11D1     		bne	.L366
 2657              	.L365:
 2658 001e 4A68     		ldr	r2, [r1, #4]
 2659 0020 23F07003 		bic	r3, r3, #112
 2660 0024 1343     		orrs	r3, r3, r2
 2661 0026 1B4A     		ldr	r2, .L377
 2662 0028 9042     		cmp	r0, r2
 2663 002a 15D0     		beq	.L367
 2664 002c B0F1804F 		cmp	r0, #1073741824
 2665 0030 12D0     		beq	.L367
 2666 0032 A2F59432 		sub	r2, r2, #75776
 2667 0036 9042     		cmp	r0, r2
 2668 0038 0ED0     		beq	.L367
 2669 003a 02F58062 		add	r2, r2, #1024
 2670 003e 9042     		cmp	r0, r2
 2671 0040 0AD0     		beq	.L367
 2672              	.L366:
 2673 0042 154A     		ldr	r2, .L377+4
 2674 0044 9042     		cmp	r0, r2
 2675 0046 07D0     		beq	.L367
 2676 0048 02F58062 		add	r2, r2, #1024
 2677 004c 9042     		cmp	r0, r2
 2678 004e 03D0     		beq	.L367
 2679 0050 02F58062 		add	r2, r2, #1024
 2680 0054 9042     		cmp	r0, r2
 2681 0056 03D1     		bne	.L368
 2682              	.L367:
 2683 0058 CA68     		ldr	r2, [r1, #12]
 2684 005a 23F44073 		bic	r3, r3, #768
 2685 005e 1343     		orrs	r3, r3, r2
 2686              	.L368:
 2687 0060 0360     		str	r3, [r0]
 2688 0062 8B68     		ldr	r3, [r1, #8]
 2689 0064 C362     		str	r3, [r0, #44]
 2690 0066 0B68     		ldr	r3, [r1]
 2691 0068 8362     		str	r3, [r0, #40]
 2692 006a 0A4B     		ldr	r3, .L377
 2693 006c 9842     		cmp	r0, r3
 2694 006e 0BD0     		beq	.L369
 2695 0070 03F5A053 		add	r3, r3, #5120
 2696 0074 9842     		cmp	r0, r3
 2697 0076 07D0     		beq	.L369
 2698 0078 03F58063 		add	r3, r3, #1024
 2699 007c 9842     		cmp	r0, r3
 2700 007e 03D0     		beq	.L369
ARM GAS  /tmp/cciUsAoE.s 			page 46


 2701 0080 03F58063 		add	r3, r3, #1024
 2702 0084 9842     		cmp	r0, r3
 2703 0086 01D1     		bne	.L370
 2704              	.L369:
 2705 0088 0B69     		ldr	r3, [r1, #16]
 2706 008a 0363     		str	r3, [r0, #48]
 2707              	.L370:
 2708 008c 0123     		movs	r3, #1
 2709 008e 4361     		str	r3, [r0, #20]
 2710 0090 7047     		bx	lr
 2711              	.L378:
 2712 0092 00BF     		.align	2
 2713              	.L377:
 2714 0094 002C0140 		.word	1073818624
 2715 0098 00400140 		.word	1073823744
 2717              		.section	.text.HAL_TIM_Base_Init,"ax",%progbits
 2718              		.align	1
 2719              		.global	HAL_TIM_Base_Init
 2720              		.thumb
 2721              		.thumb_func
 2723              	HAL_TIM_Base_Init:
 2724              		@ args = 0, pretend = 0, frame = 0
 2725              		@ frame_needed = 0, uses_anonymous_args = 0
 2726 0000 10B5     		push	{r4, lr}
 2727 0002 0446     		mov	r4, r0
 2728 0004 A0B1     		cbz	r0, .L382
 2729 0006 90F83930 		ldrb	r3, [r0, #57]	@ zero_extendqisi2
 2730 000a 03F0FF02 		and	r2, r3, #255
 2731 000e 1BB9     		cbnz	r3, .L381
 2732 0010 80F83820 		strb	r2, [r0, #56]
 2733 0014 FFF7FEFF 		bl	HAL_TIM_Base_MspInit
 2734              	.L381:
 2735 0018 0223     		movs	r3, #2
 2736 001a 84F83930 		strb	r3, [r4, #57]
 2737 001e 2068     		ldr	r0, [r4]
 2738 0020 211D     		adds	r1, r4, #4
 2739 0022 FFF7FEFF 		bl	TIM_Base_SetConfig
 2740 0026 0123     		movs	r3, #1
 2741 0028 84F83930 		strb	r3, [r4, #57]
 2742 002c 0020     		movs	r0, #0
 2743 002e 10BD     		pop	{r4, pc}
 2744              	.L382:
 2745 0030 0120     		movs	r0, #1
 2746 0032 10BD     		pop	{r4, pc}
 2748              		.section	.text.HAL_TIM_OC_Init,"ax",%progbits
 2749              		.align	1
 2750              		.global	HAL_TIM_OC_Init
 2751              		.thumb
 2752              		.thumb_func
 2754              	HAL_TIM_OC_Init:
 2755              		@ args = 0, pretend = 0, frame = 0
 2756              		@ frame_needed = 0, uses_anonymous_args = 0
 2757 0000 10B5     		push	{r4, lr}
 2758 0002 0446     		mov	r4, r0
 2759 0004 A0B1     		cbz	r0, .L386
 2760 0006 90F83930 		ldrb	r3, [r0, #57]	@ zero_extendqisi2
 2761 000a 03F0FF02 		and	r2, r3, #255
ARM GAS  /tmp/cciUsAoE.s 			page 47


 2762 000e 1BB9     		cbnz	r3, .L385
 2763 0010 80F83820 		strb	r2, [r0, #56]
 2764 0014 FFF7FEFF 		bl	HAL_TIM_OC_MspInit
 2765              	.L385:
 2766 0018 0223     		movs	r3, #2
 2767 001a 84F83930 		strb	r3, [r4, #57]
 2768 001e 2068     		ldr	r0, [r4]
 2769 0020 211D     		adds	r1, r4, #4
 2770 0022 FFF7FEFF 		bl	TIM_Base_SetConfig
 2771 0026 0123     		movs	r3, #1
 2772 0028 84F83930 		strb	r3, [r4, #57]
 2773 002c 0020     		movs	r0, #0
 2774 002e 10BD     		pop	{r4, pc}
 2775              	.L386:
 2776 0030 0120     		movs	r0, #1
 2777 0032 10BD     		pop	{r4, pc}
 2779              		.section	.text.HAL_TIM_PWM_Init,"ax",%progbits
 2780              		.align	1
 2781              		.global	HAL_TIM_PWM_Init
 2782              		.thumb
 2783              		.thumb_func
 2785              	HAL_TIM_PWM_Init:
 2786              		@ args = 0, pretend = 0, frame = 0
 2787              		@ frame_needed = 0, uses_anonymous_args = 0
 2788 0000 10B5     		push	{r4, lr}
 2789 0002 0446     		mov	r4, r0
 2790 0004 A0B1     		cbz	r0, .L390
 2791 0006 90F83930 		ldrb	r3, [r0, #57]	@ zero_extendqisi2
 2792 000a 03F0FF02 		and	r2, r3, #255
 2793 000e 1BB9     		cbnz	r3, .L389
 2794 0010 80F83820 		strb	r2, [r0, #56]
 2795 0014 FFF7FEFF 		bl	HAL_TIM_PWM_MspInit
 2796              	.L389:
 2797 0018 0223     		movs	r3, #2
 2798 001a 84F83930 		strb	r3, [r4, #57]
 2799 001e 2068     		ldr	r0, [r4]
 2800 0020 211D     		adds	r1, r4, #4
 2801 0022 FFF7FEFF 		bl	TIM_Base_SetConfig
 2802 0026 0123     		movs	r3, #1
 2803 0028 84F83930 		strb	r3, [r4, #57]
 2804 002c 0020     		movs	r0, #0
 2805 002e 10BD     		pop	{r4, pc}
 2806              	.L390:
 2807 0030 0120     		movs	r0, #1
 2808 0032 10BD     		pop	{r4, pc}
 2810              		.section	.text.HAL_TIM_IC_Init,"ax",%progbits
 2811              		.align	1
 2812              		.global	HAL_TIM_IC_Init
 2813              		.thumb
 2814              		.thumb_func
 2816              	HAL_TIM_IC_Init:
 2817              		@ args = 0, pretend = 0, frame = 0
 2818              		@ frame_needed = 0, uses_anonymous_args = 0
 2819 0000 10B5     		push	{r4, lr}
 2820 0002 0446     		mov	r4, r0
 2821 0004 A0B1     		cbz	r0, .L394
 2822 0006 90F83930 		ldrb	r3, [r0, #57]	@ zero_extendqisi2
ARM GAS  /tmp/cciUsAoE.s 			page 48


 2823 000a 03F0FF02 		and	r2, r3, #255
 2824 000e 1BB9     		cbnz	r3, .L393
 2825 0010 80F83820 		strb	r2, [r0, #56]
 2826 0014 FFF7FEFF 		bl	HAL_TIM_IC_MspInit
 2827              	.L393:
 2828 0018 0223     		movs	r3, #2
 2829 001a 84F83930 		strb	r3, [r4, #57]
 2830 001e 2068     		ldr	r0, [r4]
 2831 0020 211D     		adds	r1, r4, #4
 2832 0022 FFF7FEFF 		bl	TIM_Base_SetConfig
 2833 0026 0123     		movs	r3, #1
 2834 0028 84F83930 		strb	r3, [r4, #57]
 2835 002c 0020     		movs	r0, #0
 2836 002e 10BD     		pop	{r4, pc}
 2837              	.L394:
 2838 0030 0120     		movs	r0, #1
 2839 0032 10BD     		pop	{r4, pc}
 2841              		.section	.text.HAL_TIM_OnePulse_Init,"ax",%progbits
 2842              		.align	1
 2843              		.global	HAL_TIM_OnePulse_Init
 2844              		.thumb
 2845              		.thumb_func
 2847              	HAL_TIM_OnePulse_Init:
 2848              		@ args = 0, pretend = 0, frame = 0
 2849              		@ frame_needed = 0, uses_anonymous_args = 0
 2850 0000 38B5     		push	{r3, r4, r5, lr}
 2851 0002 0D46     		mov	r5, r1
 2852 0004 0446     		mov	r4, r0
 2853 0006 E0B1     		cbz	r0, .L398
 2854 0008 90F83930 		ldrb	r3, [r0, #57]	@ zero_extendqisi2
 2855 000c 03F0FF02 		and	r2, r3, #255
 2856 0010 1BB9     		cbnz	r3, .L397
 2857 0012 80F83820 		strb	r2, [r0, #56]
 2858 0016 FFF7FEFF 		bl	HAL_TIM_OnePulse_MspInit
 2859              	.L397:
 2860 001a 0223     		movs	r3, #2
 2861 001c 84F83930 		strb	r3, [r4, #57]
 2862 0020 2068     		ldr	r0, [r4]
 2863 0022 211D     		adds	r1, r4, #4
 2864 0024 FFF7FEFF 		bl	TIM_Base_SetConfig
 2865 0028 2368     		ldr	r3, [r4]
 2866 002a 0020     		movs	r0, #0
 2867 002c 1A68     		ldr	r2, [r3]
 2868 002e 22F00802 		bic	r2, r2, #8
 2869 0032 1A60     		str	r2, [r3]
 2870 0034 1968     		ldr	r1, [r3]
 2871 0036 2943     		orrs	r1, r1, r5
 2872 0038 1960     		str	r1, [r3]
 2873 003a 0123     		movs	r3, #1
 2874 003c 84F83930 		strb	r3, [r4, #57]
 2875 0040 38BD     		pop	{r3, r4, r5, pc}
 2876              	.L398:
 2877 0042 0120     		movs	r0, #1
 2878 0044 38BD     		pop	{r3, r4, r5, pc}
 2880              		.section	.text.HAL_TIM_Encoder_Init,"ax",%progbits
 2881              		.align	1
 2882              		.global	HAL_TIM_Encoder_Init
ARM GAS  /tmp/cciUsAoE.s 			page 49


 2883              		.thumb
 2884              		.thumb_func
 2886              	HAL_TIM_Encoder_Init:
 2887              		@ args = 0, pretend = 0, frame = 0
 2888              		@ frame_needed = 0, uses_anonymous_args = 0
 2889 0000 F8B5     		push	{r3, r4, r5, r6, r7, lr}
 2890 0002 0C46     		mov	r4, r1
 2891 0004 0546     		mov	r5, r0
 2892 0006 0028     		cmp	r0, #0
 2893 0008 41D0     		beq	.L402
 2894 000a 90F83930 		ldrb	r3, [r0, #57]	@ zero_extendqisi2
 2895 000e 03F0FF02 		and	r2, r3, #255
 2896 0012 1BB9     		cbnz	r3, .L401
 2897 0014 80F83820 		strb	r2, [r0, #56]
 2898 0018 FFF7FEFF 		bl	HAL_TIM_Encoder_MspInit
 2899              	.L401:
 2900 001c 2946     		mov	r1, r5
 2901 001e 0223     		movs	r3, #2
 2902 0020 51F8040B 		ldr	r0, [r1], #4
 2903 0024 85F83930 		strb	r3, [r5, #57]
 2904 0028 8368     		ldr	r3, [r0, #8]
 2905 002a 23F00703 		bic	r3, r3, #7
 2906 002e 8360     		str	r3, [r0, #8]
 2907 0030 FFF7FEFF 		bl	TIM_Base_SetConfig
 2908 0034 2968     		ldr	r1, [r5]
 2909 0036 2268     		ldr	r2, [r4]
 2910 0038 8E68     		ldr	r6, [r1, #8]
 2911 003a 8B69     		ldr	r3, [r1, #24]
 2912 003c 1643     		orrs	r6, r6, r2
 2913 003e 23F44073 		bic	r3, r3, #768
 2914 0042 A269     		ldr	r2, [r4, #24]
 2915 0044 23F00303 		bic	r3, r3, #3
 2916 0048 43EA0222 		orr	r2, r3, r2, lsl #8
 2917 004c A368     		ldr	r3, [r4, #8]
 2918 004e 2769     		ldr	r7, [r4, #16]
 2919 0050 1343     		orrs	r3, r3, r2
 2920 0052 E269     		ldr	r2, [r4, #28]
 2921 0054 3F01     		lsls	r7, r7, #4
 2922 0056 47EA0227 		orr	r7, r7, r2, lsl #8
 2923 005a E268     		ldr	r2, [r4, #12]
 2924 005c 086A     		ldr	r0, [r1, #32]
 2925 005e 3A43     		orrs	r2, r2, r7
 2926 0060 276A     		ldr	r7, [r4, #32]
 2927 0062 23F47C43 		bic	r3, r3, #64512
 2928 0066 42EA0732 		orr	r2, r2, r7, lsl #12
 2929 006a 23F0FC03 		bic	r3, r3, #252
 2930 006e 1343     		orrs	r3, r3, r2
 2931 0070 20F0AA02 		bic	r2, r0, #170
 2932 0074 6069     		ldr	r0, [r4, #20]
 2933 0076 42EA0012 		orr	r2, r2, r0, lsl #4
 2934 007a 6068     		ldr	r0, [r4, #4]
 2935 007c 8E60     		str	r6, [r1, #8]
 2936 007e 0243     		orrs	r2, r2, r0
 2937 0080 8B61     		str	r3, [r1, #24]
 2938 0082 0123     		movs	r3, #1
 2939 0084 0A62     		str	r2, [r1, #32]
 2940 0086 0020     		movs	r0, #0
ARM GAS  /tmp/cciUsAoE.s 			page 50


 2941 0088 85F83930 		strb	r3, [r5, #57]
 2942 008c F8BD     		pop	{r3, r4, r5, r6, r7, pc}
 2943              	.L402:
 2944 008e 0120     		movs	r0, #1
 2945 0090 F8BD     		pop	{r3, r4, r5, r6, r7, pc}
 2947              		.section	.text.TIM_OC2_SetConfig,"ax",%progbits
 2948              		.align	1
 2949              		.global	TIM_OC2_SetConfig
 2950              		.thumb
 2951              		.thumb_func
 2953              	TIM_OC2_SetConfig:
 2954              		@ args = 0, pretend = 0, frame = 0
 2955              		@ frame_needed = 0, uses_anonymous_args = 0
 2956 0000 036A     		ldr	r3, [r0, #32]
 2957 0002 30B5     		push	{r4, r5, lr}
 2958 0004 23F01003 		bic	r3, r3, #16
 2959 0008 0362     		str	r3, [r0, #32]
 2960 000a 036A     		ldr	r3, [r0, #32]
 2961 000c 4268     		ldr	r2, [r0, #4]
 2962 000e 8469     		ldr	r4, [r0, #24]
 2963 0010 0D68     		ldr	r5, [r1]
 2964 0012 24F4E644 		bic	r4, r4, #29440
 2965 0016 44EA0524 		orr	r4, r4, r5, lsl #8
 2966 001a 8D68     		ldr	r5, [r1, #8]
 2967 001c 23F02003 		bic	r3, r3, #32
 2968 0020 43EA0513 		orr	r3, r3, r5, lsl #4
 2969 0024 114D     		ldr	r5, .L411
 2970 0026 A842     		cmp	r0, r5
 2971 0028 07D1     		bne	.L404
 2972 002a CD68     		ldr	r5, [r1, #12]
 2973 002c 23F08003 		bic	r3, r3, #128
 2974 0030 43EA0513 		orr	r3, r3, r5, lsl #4
 2975 0034 23F04003 		bic	r3, r3, #64
 2976 0038 05E0     		b	.L405
 2977              	.L404:
 2978 003a 0D4D     		ldr	r5, .L411+4
 2979 003c A842     		cmp	r0, r5
 2980 003e 02D0     		beq	.L405
 2981 0040 0C4D     		ldr	r5, .L411+8
 2982 0042 A842     		cmp	r0, r5
 2983 0044 0DD1     		bne	.L410
 2984              	.L405:
 2985 0046 4D69     		ldr	r5, [r1, #20]
 2986 0048 22F44062 		bic	r2, r2, #3072
 2987 004c 42EA8502 		orr	r2, r2, r5, lsl #2
 2988 0050 8D69     		ldr	r5, [r1, #24]
 2989 0052 42EA8502 		orr	r2, r2, r5, lsl #2
 2990              	.L406:
 2991 0056 4260     		str	r2, [r0, #4]
 2992 0058 4A68     		ldr	r2, [r1, #4]
 2993 005a 8461     		str	r4, [r0, #24]
 2994 005c 8263     		str	r2, [r0, #56]
 2995 005e 0362     		str	r3, [r0, #32]
 2996 0060 30BD     		pop	{r4, r5, pc}
 2997              	.L410:
 2998 0062 05F58065 		add	r5, r5, #1024
 2999 0066 A842     		cmp	r0, r5
ARM GAS  /tmp/cciUsAoE.s 			page 51


 3000 0068 F5D1     		bne	.L406
 3001 006a ECE7     		b	.L405
 3002              	.L412:
 3003              		.align	2
 3004              	.L411:
 3005 006c 002C0140 		.word	1073818624
 3006 0070 00400140 		.word	1073823744
 3007 0074 00440140 		.word	1073824768
 3009              		.section	.text.HAL_TIM_OC_ConfigChannel,"ax",%progbits
 3010              		.align	1
 3011              		.global	HAL_TIM_OC_ConfigChannel
 3012              		.thumb
 3013              		.thumb_func
 3015              	HAL_TIM_OC_ConfigChannel:
 3016              		@ args = 0, pretend = 0, frame = 0
 3017              		@ frame_needed = 0, uses_anonymous_args = 0
 3018 0000 38B5     		push	{r3, r4, r5, lr}
 3019 0002 90F83830 		ldrb	r3, [r0, #56]	@ zero_extendqisi2
 3020 0006 0446     		mov	r4, r0
 3021 0008 012B     		cmp	r3, #1
 3022 000a 4FF00200 		mov	r0, #2
 3023 000e 24D0     		beq	.L414
 3024 0010 0123     		movs	r3, #1
 3025 0012 84F83830 		strb	r3, [r4, #56]
 3026 0016 84F83900 		strb	r0, [r4, #57]
 3027 001a 1D46     		mov	r5, r3
 3028 001c 0C2A     		cmp	r2, #12
 3029 001e 17D8     		bhi	.L415
 3030 0020 DFE802F0 		tbb	[pc, r2]
 3031              	.L417:
 3032 0024 07       		.byte	(.L416-.L417)/2
 3033 0025 16       		.byte	(.L415-.L417)/2
 3034 0026 16       		.byte	(.L415-.L417)/2
 3035 0027 16       		.byte	(.L415-.L417)/2
 3036 0028 0B       		.byte	(.L418-.L417)/2
 3037 0029 16       		.byte	(.L415-.L417)/2
 3038 002a 16       		.byte	(.L415-.L417)/2
 3039 002b 16       		.byte	(.L415-.L417)/2
 3040 002c 0F       		.byte	(.L419-.L417)/2
 3041 002d 16       		.byte	(.L415-.L417)/2
 3042 002e 16       		.byte	(.L415-.L417)/2
 3043 002f 16       		.byte	(.L415-.L417)/2
 3044 0030 13       		.byte	(.L420-.L417)/2
 3045 0031 00       		.p2align 1
 3046              	.L416:
 3047 0032 2068     		ldr	r0, [r4]
 3048 0034 FFF7FEFF 		bl	TIM_OC1_SetConfig
 3049 0038 0AE0     		b	.L415
 3050              	.L418:
 3051 003a 2068     		ldr	r0, [r4]
 3052 003c FFF7FEFF 		bl	TIM_OC2_SetConfig
 3053 0040 06E0     		b	.L415
 3054              	.L419:
 3055 0042 2068     		ldr	r0, [r4]
 3056 0044 FFF7FEFF 		bl	TIM_OC3_SetConfig
 3057 0048 02E0     		b	.L415
 3058              	.L420:
ARM GAS  /tmp/cciUsAoE.s 			page 52


 3059 004a 2068     		ldr	r0, [r4]
 3060 004c FFF7FEFF 		bl	TIM_OC4_SetConfig
 3061              	.L415:
 3062 0050 0020     		movs	r0, #0
 3063 0052 84F83950 		strb	r5, [r4, #57]
 3064 0056 84F83800 		strb	r0, [r4, #56]
 3065              	.L414:
 3066 005a 38BD     		pop	{r3, r4, r5, pc}
 3068              		.section	.text.HAL_TIM_PWM_ConfigChannel,"ax",%progbits
 3069              		.align	1
 3070              		.global	HAL_TIM_PWM_ConfigChannel
 3071              		.thumb
 3072              		.thumb_func
 3074              	HAL_TIM_PWM_ConfigChannel:
 3075              		@ args = 0, pretend = 0, frame = 0
 3076              		@ frame_needed = 0, uses_anonymous_args = 0
 3077 0000 38B5     		push	{r3, r4, r5, lr}
 3078 0002 90F83830 		ldrb	r3, [r0, #56]	@ zero_extendqisi2
 3079 0006 0446     		mov	r4, r0
 3080 0008 012B     		cmp	r3, #1
 3081 000a 0D46     		mov	r5, r1
 3082 000c 4FF00200 		mov	r0, #2
 3083 0010 58D0     		beq	.L423
 3084 0012 0123     		movs	r3, #1
 3085 0014 84F83830 		strb	r3, [r4, #56]
 3086 0018 84F83900 		strb	r0, [r4, #57]
 3087 001c 0C2A     		cmp	r2, #12
 3088 001e 4BD8     		bhi	.L424
 3089 0020 DFE802F0 		tbb	[pc, r2]
 3090              	.L426:
 3091 0024 07       		.byte	(.L425-.L426)/2
 3092 0025 4A       		.byte	(.L424-.L426)/2
 3093 0026 4A       		.byte	(.L424-.L426)/2
 3094 0027 4A       		.byte	(.L424-.L426)/2
 3095 0028 17       		.byte	(.L427-.L426)/2
 3096 0029 4A       		.byte	(.L424-.L426)/2
 3097 002a 4A       		.byte	(.L424-.L426)/2
 3098 002b 4A       		.byte	(.L424-.L426)/2
 3099 002c 29       		.byte	(.L428-.L426)/2
 3100 002d 4A       		.byte	(.L424-.L426)/2
 3101 002e 4A       		.byte	(.L424-.L426)/2
 3102 002f 4A       		.byte	(.L424-.L426)/2
 3103 0030 39       		.byte	(.L429-.L426)/2
 3104 0031 00       		.p2align 1
 3105              	.L425:
 3106 0032 2068     		ldr	r0, [r4]
 3107 0034 FFF7FEFF 		bl	TIM_OC1_SetConfig
 3108 0038 2368     		ldr	r3, [r4]
 3109 003a 9A69     		ldr	r2, [r3, #24]
 3110 003c 42F00802 		orr	r2, r2, #8
 3111 0040 9A61     		str	r2, [r3, #24]
 3112 0042 9A69     		ldr	r2, [r3, #24]
 3113 0044 22F00402 		bic	r2, r2, #4
 3114 0048 9A61     		str	r2, [r3, #24]
 3115 004a 9969     		ldr	r1, [r3, #24]
 3116 004c 2A69     		ldr	r2, [r5, #16]
 3117 004e 0A43     		orrs	r2, r2, r1
ARM GAS  /tmp/cciUsAoE.s 			page 53


 3118 0050 0FE0     		b	.L431
 3119              	.L427:
 3120 0052 2068     		ldr	r0, [r4]
 3121 0054 FFF7FEFF 		bl	TIM_OC2_SetConfig
 3122 0058 2368     		ldr	r3, [r4]
 3123 005a 2969     		ldr	r1, [r5, #16]
 3124 005c 9A69     		ldr	r2, [r3, #24]
 3125 005e 42F40062 		orr	r2, r2, #2048
 3126 0062 9A61     		str	r2, [r3, #24]
 3127 0064 9A69     		ldr	r2, [r3, #24]
 3128 0066 22F48062 		bic	r2, r2, #1024
 3129 006a 9A61     		str	r2, [r3, #24]
 3130 006c 9A69     		ldr	r2, [r3, #24]
 3131 006e 42EA0122 		orr	r2, r2, r1, lsl #8
 3132              	.L431:
 3133 0072 9A61     		str	r2, [r3, #24]
 3134 0074 20E0     		b	.L424
 3135              	.L428:
 3136 0076 2068     		ldr	r0, [r4]
 3137 0078 FFF7FEFF 		bl	TIM_OC3_SetConfig
 3138 007c 2368     		ldr	r3, [r4]
 3139 007e DA69     		ldr	r2, [r3, #28]
 3140 0080 42F00802 		orr	r2, r2, #8
 3141 0084 DA61     		str	r2, [r3, #28]
 3142 0086 DA69     		ldr	r2, [r3, #28]
 3143 0088 22F00402 		bic	r2, r2, #4
 3144 008c DA61     		str	r2, [r3, #28]
 3145 008e D969     		ldr	r1, [r3, #28]
 3146 0090 2A69     		ldr	r2, [r5, #16]
 3147 0092 0A43     		orrs	r2, r2, r1
 3148 0094 0FE0     		b	.L432
 3149              	.L429:
 3150 0096 2068     		ldr	r0, [r4]
 3151 0098 FFF7FEFF 		bl	TIM_OC4_SetConfig
 3152 009c 2368     		ldr	r3, [r4]
 3153 009e 2969     		ldr	r1, [r5, #16]
 3154 00a0 DA69     		ldr	r2, [r3, #28]
 3155 00a2 42F40062 		orr	r2, r2, #2048
 3156 00a6 DA61     		str	r2, [r3, #28]
 3157 00a8 DA69     		ldr	r2, [r3, #28]
 3158 00aa 22F48062 		bic	r2, r2, #1024
 3159 00ae DA61     		str	r2, [r3, #28]
 3160 00b0 DA69     		ldr	r2, [r3, #28]
 3161 00b2 42EA0122 		orr	r2, r2, r1, lsl #8
 3162              	.L432:
 3163 00b6 DA61     		str	r2, [r3, #28]
 3164              	.L424:
 3165 00b8 0123     		movs	r3, #1
 3166 00ba 0020     		movs	r0, #0
 3167 00bc 84F83930 		strb	r3, [r4, #57]
 3168 00c0 84F83800 		strb	r0, [r4, #56]
 3169              	.L423:
 3170 00c4 38BD     		pop	{r3, r4, r5, pc}
 3172              		.section	.text.TIM_TI1_SetConfig,"ax",%progbits
 3173              		.align	1
 3174              		.global	TIM_TI1_SetConfig
 3175              		.thumb
ARM GAS  /tmp/cciUsAoE.s 			page 54


 3176              		.thumb_func
 3178              	TIM_TI1_SetConfig:
 3179              		@ args = 0, pretend = 0, frame = 0
 3180              		@ frame_needed = 0, uses_anonymous_args = 0
 3181 0000 70B5     		push	{r4, r5, r6, lr}
 3182 0002 046A     		ldr	r4, [r0, #32]
 3183 0004 144E     		ldr	r6, .L442
 3184 0006 24F00104 		bic	r4, r4, #1
 3185 000a 0462     		str	r4, [r0, #32]
 3186 000c B042     		cmp	r0, r6
 3187 000e 8469     		ldr	r4, [r0, #24]
 3188 0010 056A     		ldr	r5, [r0, #32]
 3189 0012 0ED0     		beq	.L434
 3190 0014 B0F1804F 		cmp	r0, #1073741824
 3191 0018 0BD0     		beq	.L434
 3192 001a A6F59436 		sub	r6, r6, #75776
 3193 001e B042     		cmp	r0, r6
 3194 0020 07D0     		beq	.L434
 3195 0022 06F58066 		add	r6, r6, #1024
 3196 0026 B042     		cmp	r0, r6
 3197 0028 03D0     		beq	.L434
 3198 002a 06F59C36 		add	r6, r6, #79872
 3199 002e B042     		cmp	r0, r6
 3200 0030 0FD1     		bne	.L440
 3201              	.L434:
 3202 0032 24F00304 		bic	r4, r4, #3
 3203 0036 2243     		orrs	r2, r2, r4
 3204              	.L436:
 3205 0038 1B01     		lsls	r3, r3, #4
 3206 003a 22F0F002 		bic	r2, r2, #240
 3207 003e DBB2     		uxtb	r3, r3
 3208 0040 25F00A05 		bic	r5, r5, #10
 3209 0044 01F00A01 		and	r1, r1, #10
 3210 0048 1A43     		orrs	r2, r2, r3
 3211 004a 0D43     		orrs	r5, r5, r1
 3212 004c 8261     		str	r2, [r0, #24]
 3213 004e 0562     		str	r5, [r0, #32]
 3214 0050 70BD     		pop	{r4, r5, r6, pc}
 3215              	.L440:
 3216 0052 44F00102 		orr	r2, r4, #1
 3217 0056 EFE7     		b	.L436
 3218              	.L443:
 3219              		.align	2
 3220              	.L442:
 3221 0058 002C0140 		.word	1073818624
 3223              		.section	.text.HAL_TIM_IC_ConfigChannel,"ax",%progbits
 3224              		.align	1
 3225              		.global	HAL_TIM_IC_ConfigChannel
 3226              		.thumb
 3227              		.thumb_func
 3229              	HAL_TIM_IC_ConfigChannel:
 3230              		@ args = 0, pretend = 0, frame = 0
 3231              		@ frame_needed = 0, uses_anonymous_args = 0
 3232 0000 F8B5     		push	{r3, r4, r5, r6, r7, lr}
 3233 0002 90F83830 		ldrb	r3, [r0, #56]	@ zero_extendqisi2
 3234 0006 0446     		mov	r4, r0
 3235 0008 012B     		cmp	r3, #1
ARM GAS  /tmp/cciUsAoE.s 			page 55


 3236 000a 0D46     		mov	r5, r1
 3237 000c 4FF00200 		mov	r0, #2
 3238 0010 7FD0     		beq	.L445
 3239 0012 0123     		movs	r3, #1
 3240 0014 84F83830 		strb	r3, [r4, #56]
 3241 0018 84F83900 		strb	r0, [r4, #57]
 3242 001c 72B9     		cbnz	r2, .L446
 3243 001e 06C9     		ldmia	r1, {r1, r2}
 3244 0020 EB68     		ldr	r3, [r5, #12]
 3245 0022 2068     		ldr	r0, [r4]
 3246 0024 FFF7FEFF 		bl	TIM_TI1_SetConfig
 3247 0028 2368     		ldr	r3, [r4]
 3248 002a 9A69     		ldr	r2, [r3, #24]
 3249 002c 22F00C02 		bic	r2, r2, #12
 3250 0030 9A61     		str	r2, [r3, #24]
 3251 0032 9969     		ldr	r1, [r3, #24]
 3252 0034 AA68     		ldr	r2, [r5, #8]
 3253 0036 0A43     		orrs	r2, r2, r1
 3254 0038 9A61     		str	r2, [r3, #24]
 3255 003a 64E0     		b	.L447
 3256              	.L446:
 3257 003c 042A     		cmp	r2, #4
 3258 003e 8E68     		ldr	r6, [r1, #8]
 3259 0040 91E80140 		ldmia	r1, {r0, lr}
 3260 0044 2368     		ldr	r3, [r4]
 3261 0046 C968     		ldr	r1, [r1, #12]
 3262 0048 1FD1     		bne	.L448
 3263 004a 1A6A     		ldr	r2, [r3, #32]
 3264 004c 0903     		lsls	r1, r1, #12
 3265 004e 22F01002 		bic	r2, r2, #16
 3266 0052 1A62     		str	r2, [r3, #32]
 3267 0054 9D69     		ldr	r5, [r3, #24]
 3268 0056 1F6A     		ldr	r7, [r3, #32]
 3269 0058 25F44075 		bic	r5, r5, #768
 3270 005c 45EA0E22 		orr	r2, r5, lr, lsl #8
 3271 0060 0001     		lsls	r0, r0, #4
 3272 0062 22F47042 		bic	r2, r2, #61440
 3273 0066 89B2     		uxth	r1, r1
 3274 0068 27F0A005 		bic	r5, r7, #160
 3275 006c 00F0A000 		and	r0, r0, #160
 3276 0070 0A43     		orrs	r2, r2, r1
 3277 0072 2843     		orrs	r0, r0, r5
 3278 0074 9A61     		str	r2, [r3, #24]
 3279 0076 1862     		str	r0, [r3, #32]
 3280 0078 9A69     		ldr	r2, [r3, #24]
 3281 007a 22F44062 		bic	r2, r2, #3072
 3282 007e 9A61     		str	r2, [r3, #24]
 3283 0080 9A69     		ldr	r2, [r3, #24]
 3284 0082 42EA0626 		orr	r6, r2, r6, lsl #8
 3285 0086 9E61     		str	r6, [r3, #24]
 3286 0088 3DE0     		b	.L447
 3287              	.L448:
 3288 008a 082A     		cmp	r2, #8
 3289 008c 1A6A     		ldr	r2, [r3, #32]
 3290 008e 1CD1     		bne	.L449
 3291 0090 22F48072 		bic	r2, r2, #256
 3292 0094 1A62     		str	r2, [r3, #32]
ARM GAS  /tmp/cciUsAoE.s 			page 56


 3293 0096 DD69     		ldr	r5, [r3, #28]
 3294 0098 1F6A     		ldr	r7, [r3, #32]
 3295 009a 25F00305 		bic	r5, r5, #3
 3296 009e 45EA0E02 		orr	r2, r5, lr
 3297 00a2 0901     		lsls	r1, r1, #4
 3298 00a4 0002     		lsls	r0, r0, #8
 3299 00a6 22F0F002 		bic	r2, r2, #240
 3300 00aa C9B2     		uxtb	r1, r1
 3301 00ac 27F42065 		bic	r5, r7, #2560
 3302 00b0 00F42060 		and	r0, r0, #2560
 3303 00b4 0A43     		orrs	r2, r2, r1
 3304 00b6 2843     		orrs	r0, r0, r5
 3305 00b8 DA61     		str	r2, [r3, #28]
 3306 00ba 1862     		str	r0, [r3, #32]
 3307 00bc DA69     		ldr	r2, [r3, #28]
 3308 00be 22F00C02 		bic	r2, r2, #12
 3309 00c2 DA61     		str	r2, [r3, #28]
 3310 00c4 DA69     		ldr	r2, [r3, #28]
 3311 00c6 1643     		orrs	r6, r6, r2
 3312 00c8 1CE0     		b	.L451
 3313              	.L449:
 3314 00ca 22F48052 		bic	r2, r2, #4096
 3315 00ce 1A62     		str	r2, [r3, #32]
 3316 00d0 DD69     		ldr	r5, [r3, #28]
 3317 00d2 0903     		lsls	r1, r1, #12
 3318 00d4 25F44075 		bic	r5, r5, #768
 3319 00d8 1F6A     		ldr	r7, [r3, #32]
 3320 00da 45EA0E22 		orr	r2, r5, lr, lsl #8
 3321 00de 22F47042 		bic	r2, r2, #61440
 3322 00e2 89B2     		uxth	r1, r1
 3323 00e4 0003     		lsls	r0, r0, #12
 3324 00e6 1143     		orrs	r1, r1, r2
 3325 00e8 00F42040 		and	r0, r0, #40960
 3326 00ec 27F42042 		bic	r2, r7, #40960
 3327 00f0 1043     		orrs	r0, r0, r2
 3328 00f2 D961     		str	r1, [r3, #28]
 3329 00f4 1862     		str	r0, [r3, #32]
 3330 00f6 DA69     		ldr	r2, [r3, #28]
 3331 00f8 22F44062 		bic	r2, r2, #3072
 3332 00fc DA61     		str	r2, [r3, #28]
 3333 00fe DA69     		ldr	r2, [r3, #28]
 3334 0100 42EA0626 		orr	r6, r2, r6, lsl #8
 3335              	.L451:
 3336 0104 DE61     		str	r6, [r3, #28]
 3337              	.L447:
 3338 0106 0123     		movs	r3, #1
 3339 0108 0020     		movs	r0, #0
 3340 010a 84F83930 		strb	r3, [r4, #57]
 3341 010e 84F83800 		strb	r0, [r4, #56]
 3342              	.L445:
 3343 0112 F8BD     		pop	{r3, r4, r5, r6, r7, pc}
 3345              		.section	.text.HAL_TIM_OnePulse_ConfigChannel,"ax",%progbits
 3346              		.align	1
 3347              		.global	HAL_TIM_OnePulse_ConfigChannel
 3348              		.thumb
 3349              		.thumb_func
 3351              	HAL_TIM_OnePulse_ConfigChannel:
ARM GAS  /tmp/cciUsAoE.s 			page 57


 3352              		@ args = 0, pretend = 0, frame = 32
 3353              		@ frame_needed = 0, uses_anonymous_args = 0
 3354 0000 F0B5     		push	{r4, r5, r6, r7, lr}
 3355 0002 9A42     		cmp	r2, r3
 3356 0004 89B0     		sub	sp, sp, #36
 3357 0006 0546     		mov	r5, r0
 3358 0008 0C46     		mov	r4, r1
 3359 000a 1E46     		mov	r6, r3
 3360 000c 6DD0     		beq	.L460
 3361 000e 90F83830 		ldrb	r3, [r0, #56]	@ zero_extendqisi2
 3362 0012 0220     		movs	r0, #2
 3363 0014 012B     		cmp	r3, #1
 3364 0016 69D0     		beq	.L453
 3365 0018 0123     		movs	r3, #1
 3366 001a 85F83830 		strb	r3, [r5, #56]
 3367 001e 0B68     		ldr	r3, [r1]
 3368 0020 85F83900 		strb	r0, [r5, #57]
 3369 0024 0193     		str	r3, [sp, #4]
 3370 0026 4B68     		ldr	r3, [r1, #4]
 3371 0028 0293     		str	r3, [sp, #8]
 3372 002a 8B68     		ldr	r3, [r1, #8]
 3373 002c 0393     		str	r3, [sp, #12]
 3374 002e CB68     		ldr	r3, [r1, #12]
 3375 0030 0493     		str	r3, [sp, #16]
 3376 0032 0B69     		ldr	r3, [r1, #16]
 3377 0034 0693     		str	r3, [sp, #24]
 3378 0036 4B69     		ldr	r3, [r1, #20]
 3379 0038 0793     		str	r3, [sp, #28]
 3380 003a 32B1     		cbz	r2, .L455
 3381 003c 042A     		cmp	r2, #4
 3382 003e 08D1     		bne	.L454
 3383 0040 2868     		ldr	r0, [r5]
 3384 0042 01A9     		add	r1, sp, #4
 3385 0044 FFF7FEFF 		bl	TIM_OC2_SetConfig
 3386 0048 03E0     		b	.L454
 3387              	.L455:
 3388 004a 2868     		ldr	r0, [r5]
 3389 004c 01A9     		add	r1, sp, #4
 3390 004e FFF7FEFF 		bl	TIM_OC1_SetConfig
 3391              	.L454:
 3392 0052 46B3     		cbz	r6, .L458
 3393 0054 042E     		cmp	r6, #4
 3394 0056 41D1     		bne	.L457
 3395 0058 2B68     		ldr	r3, [r5]
 3396 005a A669     		ldr	r6, [r4, #24]
 3397 005c 186A     		ldr	r0, [r3, #32]
 3398 005e E769     		ldr	r7, [r4, #28]
 3399 0060 20F01000 		bic	r0, r0, #16
 3400 0064 226A     		ldr	r2, [r4, #32]
 3401 0066 1862     		str	r0, [r3, #32]
 3402 0068 9969     		ldr	r1, [r3, #24]
 3403 006a 1203     		lsls	r2, r2, #12
 3404 006c 21F44071 		bic	r1, r1, #768
 3405 0070 41EA0721 		orr	r1, r1, r7, lsl #8
 3406 0074 186A     		ldr	r0, [r3, #32]
 3407 0076 21F47041 		bic	r1, r1, #61440
 3408 007a 92B2     		uxth	r2, r2
ARM GAS  /tmp/cciUsAoE.s 			page 58


 3409 007c 0A43     		orrs	r2, r2, r1
 3410 007e 3101     		lsls	r1, r6, #4
 3411 0080 20F0A000 		bic	r0, r0, #160
 3412 0084 01F0A001 		and	r1, r1, #160
 3413 0088 0143     		orrs	r1, r1, r0
 3414 008a 9A61     		str	r2, [r3, #24]
 3415 008c 1962     		str	r1, [r3, #32]
 3416 008e 9A69     		ldr	r2, [r3, #24]
 3417 0090 22F44062 		bic	r2, r2, #3072
 3418 0094 9A61     		str	r2, [r3, #24]
 3419 0096 9A68     		ldr	r2, [r3, #8]
 3420 0098 22F07002 		bic	r2, r2, #112
 3421 009c 9A60     		str	r2, [r3, #8]
 3422 009e 9A68     		ldr	r2, [r3, #8]
 3423 00a0 42F06002 		orr	r2, r2, #96
 3424 00a4 11E0     		b	.L462
 3425              	.L458:
 3426 00a6 04F11801 		add	r1, r4, #24
 3427 00aa 0EC9     		ldmia	r1, {r1, r2, r3}
 3428 00ac 2868     		ldr	r0, [r5]
 3429 00ae FFF7FEFF 		bl	TIM_TI1_SetConfig
 3430 00b2 2B68     		ldr	r3, [r5]
 3431 00b4 9A69     		ldr	r2, [r3, #24]
 3432 00b6 22F00C02 		bic	r2, r2, #12
 3433 00ba 9A61     		str	r2, [r3, #24]
 3434 00bc 9A68     		ldr	r2, [r3, #8]
 3435 00be 22F07002 		bic	r2, r2, #112
 3436 00c2 9A60     		str	r2, [r3, #8]
 3437 00c4 9A68     		ldr	r2, [r3, #8]
 3438 00c6 42F05002 		orr	r2, r2, #80
 3439              	.L462:
 3440 00ca 9A60     		str	r2, [r3, #8]
 3441 00cc 9A68     		ldr	r2, [r3, #8]
 3442 00ce 22F00702 		bic	r2, r2, #7
 3443 00d2 9A60     		str	r2, [r3, #8]
 3444 00d4 9A68     		ldr	r2, [r3, #8]
 3445 00d6 42F00602 		orr	r2, r2, #6
 3446 00da 9A60     		str	r2, [r3, #8]
 3447              	.L457:
 3448 00dc 0123     		movs	r3, #1
 3449 00de 0020     		movs	r0, #0
 3450 00e0 85F83930 		strb	r3, [r5, #57]
 3451 00e4 85F83800 		strb	r0, [r5, #56]
 3452 00e8 00E0     		b	.L453
 3453              	.L460:
 3454 00ea 0120     		movs	r0, #1
 3455              	.L453:
 3456 00ec 09B0     		add	sp, sp, #36
 3457              		@ sp needed
 3458 00ee F0BD     		pop	{r4, r5, r6, r7, pc}
 3460              		.section	.text.TIM_CCxChannelCmd,"ax",%progbits
 3461              		.align	1
 3462              		.global	TIM_CCxChannelCmd
 3463              		.thumb
 3464              		.thumb_func
 3466              	TIM_CCxChannelCmd:
 3467              		@ args = 0, pretend = 0, frame = 0
ARM GAS  /tmp/cciUsAoE.s 			page 59


 3468              		@ frame_needed = 0, uses_anonymous_args = 0
 3469 0000 10B5     		push	{r4, lr}
 3470 0002 0123     		movs	r3, #1
 3471 0004 046A     		ldr	r4, [r0, #32]
 3472 0006 8B40     		lsls	r3, r3, r1
 3473 0008 24EA0303 		bic	r3, r4, r3
 3474 000c 0362     		str	r3, [r0, #32]
 3475 000e 036A     		ldr	r3, [r0, #32]
 3476 0010 8A40     		lsls	r2, r2, r1
 3477 0012 1343     		orrs	r3, r3, r2
 3478 0014 0362     		str	r3, [r0, #32]
 3479 0016 10BD     		pop	{r4, pc}
 3481              		.section	.text.HAL_TIM_OC_Start,"ax",%progbits
 3482              		.align	1
 3483              		.global	HAL_TIM_OC_Start
 3484              		.thumb
 3485              		.thumb_func
 3487              	HAL_TIM_OC_Start:
 3488              		@ args = 0, pretend = 0, frame = 0
 3489              		@ frame_needed = 0, uses_anonymous_args = 0
 3490 0000 10B5     		push	{r4, lr}
 3491 0002 0446     		mov	r4, r0
 3492 0004 0122     		movs	r2, #1
 3493 0006 0068     		ldr	r0, [r0]
 3494 0008 FFF7FEFF 		bl	TIM_CCxChannelCmd
 3495 000c 2368     		ldr	r3, [r4]
 3496 000e 0C4A     		ldr	r2, .L468
 3497 0010 9342     		cmp	r3, r2
 3498 0012 0BD0     		beq	.L465
 3499 0014 02F5A052 		add	r2, r2, #5120
 3500 0018 9342     		cmp	r3, r2
 3501 001a 07D0     		beq	.L465
 3502 001c 02F58062 		add	r2, r2, #1024
 3503 0020 9342     		cmp	r3, r2
 3504 0022 03D0     		beq	.L465
 3505 0024 02F58062 		add	r2, r2, #1024
 3506 0028 9342     		cmp	r3, r2
 3507 002a 03D1     		bne	.L466
 3508              	.L465:
 3509 002c 5A6C     		ldr	r2, [r3, #68]
 3510 002e 42F40042 		orr	r2, r2, #32768
 3511 0032 5A64     		str	r2, [r3, #68]
 3512              	.L466:
 3513 0034 1A68     		ldr	r2, [r3]
 3514 0036 0020     		movs	r0, #0
 3515 0038 42F00102 		orr	r2, r2, #1
 3516 003c 1A60     		str	r2, [r3]
 3517 003e 10BD     		pop	{r4, pc}
 3518              	.L469:
 3519              		.align	2
 3520              	.L468:
 3521 0040 002C0140 		.word	1073818624
 3523              		.section	.text.HAL_TIM_OC_Stop,"ax",%progbits
 3524              		.align	1
 3525              		.global	HAL_TIM_OC_Stop
 3526              		.thumb
 3527              		.thumb_func
ARM GAS  /tmp/cciUsAoE.s 			page 60


 3529              	HAL_TIM_OC_Stop:
 3530              		@ args = 0, pretend = 0, frame = 0
 3531              		@ frame_needed = 0, uses_anonymous_args = 0
 3532 0000 10B5     		push	{r4, lr}
 3533 0002 0446     		mov	r4, r0
 3534 0004 0022     		movs	r2, #0
 3535 0006 0068     		ldr	r0, [r0]
 3536 0008 FFF7FEFF 		bl	TIM_CCxChannelCmd
 3537 000c 2368     		ldr	r3, [r4]
 3538 000e 164A     		ldr	r2, .L476
 3539 0010 9342     		cmp	r3, r2
 3540 0012 0BD0     		beq	.L471
 3541 0014 02F5A052 		add	r2, r2, #5120
 3542 0018 9342     		cmp	r3, r2
 3543 001a 07D0     		beq	.L471
 3544 001c 02F58062 		add	r2, r2, #1024
 3545 0020 9342     		cmp	r3, r2
 3546 0022 03D0     		beq	.L471
 3547 0024 02F58062 		add	r2, r2, #1024
 3548 0028 9342     		cmp	r3, r2
 3549 002a 0DD1     		bne	.L472
 3550              	.L471:
 3551 002c 41F21112 		movw	r2, #4369
 3552 0030 196A     		ldr	r1, [r3, #32]
 3553 0032 0A40     		ands	r2, r2, r1
 3554 0034 42B9     		cbnz	r2, .L472
 3555 0036 40F24442 		movw	r2, #1092
 3556 003a 196A     		ldr	r1, [r3, #32]
 3557 003c 0A40     		ands	r2, r2, r1
 3558 003e 1AB9     		cbnz	r2, .L472
 3559 0040 5A6C     		ldr	r2, [r3, #68]
 3560 0042 22F40042 		bic	r2, r2, #32768
 3561 0046 5A64     		str	r2, [r3, #68]
 3562              	.L472:
 3563 0048 41F21112 		movw	r2, #4369
 3564 004c 196A     		ldr	r1, [r3, #32]
 3565 004e 0A40     		ands	r2, r2, r1
 3566 0050 42B9     		cbnz	r2, .L475
 3567 0052 40F24442 		movw	r2, #1092
 3568 0056 196A     		ldr	r1, [r3, #32]
 3569 0058 0A40     		ands	r2, r2, r1
 3570 005a 1AB9     		cbnz	r2, .L475
 3571 005c 1A68     		ldr	r2, [r3]
 3572 005e 22F00102 		bic	r2, r2, #1
 3573 0062 1A60     		str	r2, [r3]
 3574              	.L475:
 3575 0064 0020     		movs	r0, #0
 3576 0066 10BD     		pop	{r4, pc}
 3577              	.L477:
 3578              		.align	2
 3579              	.L476:
 3580 0068 002C0140 		.word	1073818624
 3582              		.section	.text.HAL_TIM_OC_Start_IT,"ax",%progbits
 3583              		.align	1
 3584              		.global	HAL_TIM_OC_Start_IT
 3585              		.thumb
 3586              		.thumb_func
ARM GAS  /tmp/cciUsAoE.s 			page 61


 3588              	HAL_TIM_OC_Start_IT:
 3589              		@ args = 0, pretend = 0, frame = 0
 3590              		@ frame_needed = 0, uses_anonymous_args = 0
 3591 0000 10B5     		push	{r4, lr}
 3592 0002 0446     		mov	r4, r0
 3593 0004 0C29     		cmp	r1, #12
 3594 0006 1CD8     		bhi	.L479
 3595 0008 DFE801F0 		tbb	[pc, r1]
 3596              	.L481:
 3597 000c 07       		.byte	(.L480-.L481)/2
 3598 000d 1B       		.byte	(.L479-.L481)/2
 3599 000e 1B       		.byte	(.L479-.L481)/2
 3600 000f 1B       		.byte	(.L479-.L481)/2
 3601 0010 0C       		.byte	(.L482-.L481)/2
 3602 0011 1B       		.byte	(.L479-.L481)/2
 3603 0012 1B       		.byte	(.L479-.L481)/2
 3604 0013 1B       		.byte	(.L479-.L481)/2
 3605 0014 11       		.byte	(.L483-.L481)/2
 3606 0015 1B       		.byte	(.L479-.L481)/2
 3607 0016 1B       		.byte	(.L479-.L481)/2
 3608 0017 1B       		.byte	(.L479-.L481)/2
 3609 0018 16       		.byte	(.L484-.L481)/2
 3610 0019 00       		.p2align 1
 3611              	.L480:
 3612 001a 0268     		ldr	r2, [r0]
 3613 001c D368     		ldr	r3, [r2, #12]
 3614 001e 43F00203 		orr	r3, r3, #2
 3615 0022 0DE0     		b	.L488
 3616              	.L482:
 3617 0024 0268     		ldr	r2, [r0]
 3618 0026 D368     		ldr	r3, [r2, #12]
 3619 0028 43F00403 		orr	r3, r3, #4
 3620 002c 08E0     		b	.L488
 3621              	.L483:
 3622 002e 0268     		ldr	r2, [r0]
 3623 0030 D368     		ldr	r3, [r2, #12]
 3624 0032 43F00803 		orr	r3, r3, #8
 3625 0036 03E0     		b	.L488
 3626              	.L484:
 3627 0038 0268     		ldr	r2, [r0]
 3628 003a D368     		ldr	r3, [r2, #12]
 3629 003c 43F01003 		orr	r3, r3, #16
 3630              	.L488:
 3631 0040 D360     		str	r3, [r2, #12]
 3632              	.L479:
 3633 0042 0122     		movs	r2, #1
 3634 0044 2068     		ldr	r0, [r4]
 3635 0046 FFF7FEFF 		bl	TIM_CCxChannelCmd
 3636 004a 2368     		ldr	r3, [r4]
 3637 004c 0C4A     		ldr	r2, .L489
 3638 004e 9342     		cmp	r3, r2
 3639 0050 0BD0     		beq	.L485
 3640 0052 02F5A052 		add	r2, r2, #5120
 3641 0056 9342     		cmp	r3, r2
 3642 0058 07D0     		beq	.L485
 3643 005a 02F58062 		add	r2, r2, #1024
 3644 005e 9342     		cmp	r3, r2
ARM GAS  /tmp/cciUsAoE.s 			page 62


 3645 0060 03D0     		beq	.L485
 3646 0062 02F58062 		add	r2, r2, #1024
 3647 0066 9342     		cmp	r3, r2
 3648 0068 03D1     		bne	.L486
 3649              	.L485:
 3650 006a 5A6C     		ldr	r2, [r3, #68]
 3651 006c 42F40042 		orr	r2, r2, #32768
 3652 0070 5A64     		str	r2, [r3, #68]
 3653              	.L486:
 3654 0072 1A68     		ldr	r2, [r3]
 3655 0074 0020     		movs	r0, #0
 3656 0076 42F00102 		orr	r2, r2, #1
 3657 007a 1A60     		str	r2, [r3]
 3658 007c 10BD     		pop	{r4, pc}
 3659              	.L490:
 3660 007e 00BF     		.align	2
 3661              	.L489:
 3662 0080 002C0140 		.word	1073818624
 3664              		.section	.text.HAL_TIM_OC_Stop_IT,"ax",%progbits
 3665              		.align	1
 3666              		.global	HAL_TIM_OC_Stop_IT
 3667              		.thumb
 3668              		.thumb_func
 3670              	HAL_TIM_OC_Stop_IT:
 3671              		@ args = 0, pretend = 0, frame = 0
 3672              		@ frame_needed = 0, uses_anonymous_args = 0
 3673 0000 10B5     		push	{r4, lr}
 3674 0002 0446     		mov	r4, r0
 3675 0004 0C29     		cmp	r1, #12
 3676 0006 1CD8     		bhi	.L492
 3677 0008 DFE801F0 		tbb	[pc, r1]
 3678              	.L494:
 3679 000c 07       		.byte	(.L493-.L494)/2
 3680 000d 1B       		.byte	(.L492-.L494)/2
 3681 000e 1B       		.byte	(.L492-.L494)/2
 3682 000f 1B       		.byte	(.L492-.L494)/2
 3683 0010 0C       		.byte	(.L495-.L494)/2
 3684 0011 1B       		.byte	(.L492-.L494)/2
 3685 0012 1B       		.byte	(.L492-.L494)/2
 3686 0013 1B       		.byte	(.L492-.L494)/2
 3687 0014 11       		.byte	(.L496-.L494)/2
 3688 0015 1B       		.byte	(.L492-.L494)/2
 3689 0016 1B       		.byte	(.L492-.L494)/2
 3690 0017 1B       		.byte	(.L492-.L494)/2
 3691 0018 16       		.byte	(.L497-.L494)/2
 3692 0019 00       		.p2align 1
 3693              	.L493:
 3694 001a 0268     		ldr	r2, [r0]
 3695 001c D368     		ldr	r3, [r2, #12]
 3696 001e 23F00203 		bic	r3, r3, #2
 3697 0022 0DE0     		b	.L503
 3698              	.L495:
 3699 0024 0268     		ldr	r2, [r0]
 3700 0026 D368     		ldr	r3, [r2, #12]
 3701 0028 23F00403 		bic	r3, r3, #4
 3702 002c 08E0     		b	.L503
 3703              	.L496:
ARM GAS  /tmp/cciUsAoE.s 			page 63


 3704 002e 0268     		ldr	r2, [r0]
 3705 0030 D368     		ldr	r3, [r2, #12]
 3706 0032 23F00803 		bic	r3, r3, #8
 3707 0036 03E0     		b	.L503
 3708              	.L497:
 3709 0038 0268     		ldr	r2, [r0]
 3710 003a D368     		ldr	r3, [r2, #12]
 3711 003c 23F01003 		bic	r3, r3, #16
 3712              	.L503:
 3713 0040 D360     		str	r3, [r2, #12]
 3714              	.L492:
 3715 0042 0022     		movs	r2, #0
 3716 0044 2068     		ldr	r0, [r4]
 3717 0046 FFF7FEFF 		bl	TIM_CCxChannelCmd
 3718 004a 2368     		ldr	r3, [r4]
 3719 004c 164A     		ldr	r2, .L504
 3720 004e 9342     		cmp	r3, r2
 3721 0050 0BD0     		beq	.L498
 3722 0052 02F5A052 		add	r2, r2, #5120
 3723 0056 9342     		cmp	r3, r2
 3724 0058 07D0     		beq	.L498
 3725 005a 02F58062 		add	r2, r2, #1024
 3726 005e 9342     		cmp	r3, r2
 3727 0060 03D0     		beq	.L498
 3728 0062 02F58062 		add	r2, r2, #1024
 3729 0066 9342     		cmp	r3, r2
 3730 0068 0DD1     		bne	.L499
 3731              	.L498:
 3732 006a 41F21112 		movw	r2, #4369
 3733 006e 196A     		ldr	r1, [r3, #32]
 3734 0070 0A40     		ands	r2, r2, r1
 3735 0072 42B9     		cbnz	r2, .L499
 3736 0074 40F24442 		movw	r2, #1092
 3737 0078 196A     		ldr	r1, [r3, #32]
 3738 007a 0A40     		ands	r2, r2, r1
 3739 007c 1AB9     		cbnz	r2, .L499
 3740 007e 5A6C     		ldr	r2, [r3, #68]
 3741 0080 22F40042 		bic	r2, r2, #32768
 3742 0084 5A64     		str	r2, [r3, #68]
 3743              	.L499:
 3744 0086 41F21112 		movw	r2, #4369
 3745 008a 196A     		ldr	r1, [r3, #32]
 3746 008c 0A40     		ands	r2, r2, r1
 3747 008e 42B9     		cbnz	r2, .L502
 3748 0090 40F24442 		movw	r2, #1092
 3749 0094 196A     		ldr	r1, [r3, #32]
 3750 0096 0A40     		ands	r2, r2, r1
 3751 0098 1AB9     		cbnz	r2, .L502
 3752 009a 1A68     		ldr	r2, [r3]
 3753 009c 22F00102 		bic	r2, r2, #1
 3754 00a0 1A60     		str	r2, [r3]
 3755              	.L502:
 3756 00a2 0020     		movs	r0, #0
 3757 00a4 10BD     		pop	{r4, pc}
 3758              	.L505:
 3759 00a6 00BF     		.align	2
 3760              	.L504:
ARM GAS  /tmp/cciUsAoE.s 			page 64


 3761 00a8 002C0140 		.word	1073818624
 3763              		.section	.text.HAL_TIM_OC_Start_DMA,"ax",%progbits
 3764              		.align	1
 3765              		.global	HAL_TIM_OC_Start_DMA
 3766              		.thumb
 3767              		.thumb_func
 3769              	HAL_TIM_OC_Start_DMA:
 3770              		@ args = 0, pretend = 0, frame = 0
 3771              		@ frame_needed = 0, uses_anonymous_args = 0
 3772 0000 38B5     		push	{r3, r4, r5, lr}
 3773 0002 0446     		mov	r4, r0
 3774 0004 90F83900 		ldrb	r0, [r0, #57]	@ zero_extendqisi2
 3775 0008 0D46     		mov	r5, r1
 3776 000a C0B2     		uxtb	r0, r0
 3777 000c 0228     		cmp	r0, #2
 3778 000e 1146     		mov	r1, r2
 3779 0010 6DD0     		beq	.L520
 3780 0012 94F83900 		ldrb	r0, [r4, #57]	@ zero_extendqisi2
 3781 0016 C0B2     		uxtb	r0, r0
 3782 0018 0128     		cmp	r0, #1
 3783 001a 05D1     		bne	.L508
 3784 001c 0AB9     		cbnz	r2, .L509
 3785 001e 002B     		cmp	r3, #0
 3786 0020 65D1     		bne	.L520
 3787              	.L509:
 3788 0022 0222     		movs	r2, #2
 3789 0024 84F83920 		strb	r2, [r4, #57]
 3790              	.L508:
 3791 0028 0C2D     		cmp	r5, #12
 3792 002a 40D8     		bhi	.L510
 3793 002c DFE805F0 		tbb	[pc, r5]
 3794              	.L512:
 3795 0030 07       		.byte	(.L511-.L512)/2
 3796 0031 3F       		.byte	(.L510-.L512)/2
 3797 0032 3F       		.byte	(.L510-.L512)/2
 3798 0033 3F       		.byte	(.L510-.L512)/2
 3799 0034 15       		.byte	(.L513-.L512)/2
 3800 0035 3F       		.byte	(.L510-.L512)/2
 3801 0036 3F       		.byte	(.L510-.L512)/2
 3802 0037 3F       		.byte	(.L510-.L512)/2
 3803 0038 23       		.byte	(.L514-.L512)/2
 3804 0039 3F       		.byte	(.L510-.L512)/2
 3805 003a 3F       		.byte	(.L510-.L512)/2
 3806 003b 3F       		.byte	(.L510-.L512)/2
 3807 003c 31       		.byte	(.L515-.L512)/2
 3808 003d 00       		.p2align 1
 3809              	.L511:
 3810 003e 206A     		ldr	r0, [r4, #32]
 3811 0040 2B4A     		ldr	r2, .L522
 3812 0042 8262     		str	r2, [r0, #40]
 3813 0044 2B4A     		ldr	r2, .L522+4
 3814 0046 0263     		str	r2, [r0, #48]
 3815 0048 2268     		ldr	r2, [r4]
 3816 004a 3432     		adds	r2, r2, #52
 3817 004c FFF7FEFF 		bl	HAL_DMA_Start_IT
 3818 0050 2268     		ldr	r2, [r4]
 3819 0052 D368     		ldr	r3, [r2, #12]
ARM GAS  /tmp/cciUsAoE.s 			page 65


 3820 0054 43F40073 		orr	r3, r3, #512
 3821 0058 28E0     		b	.L521
 3822              	.L513:
 3823 005a 606A     		ldr	r0, [r4, #36]
 3824 005c 244A     		ldr	r2, .L522
 3825 005e 8262     		str	r2, [r0, #40]
 3826 0060 244A     		ldr	r2, .L522+4
 3827 0062 0263     		str	r2, [r0, #48]
 3828 0064 2268     		ldr	r2, [r4]
 3829 0066 3832     		adds	r2, r2, #56
 3830 0068 FFF7FEFF 		bl	HAL_DMA_Start_IT
 3831 006c 2268     		ldr	r2, [r4]
 3832 006e D368     		ldr	r3, [r2, #12]
 3833 0070 43F48063 		orr	r3, r3, #1024
 3834 0074 1AE0     		b	.L521
 3835              	.L514:
 3836 0076 A06A     		ldr	r0, [r4, #40]
 3837 0078 1D4A     		ldr	r2, .L522
 3838 007a 8262     		str	r2, [r0, #40]
 3839 007c 1D4A     		ldr	r2, .L522+4
 3840 007e 0263     		str	r2, [r0, #48]
 3841 0080 2268     		ldr	r2, [r4]
 3842 0082 3C32     		adds	r2, r2, #60
 3843 0084 FFF7FEFF 		bl	HAL_DMA_Start_IT
 3844 0088 2268     		ldr	r2, [r4]
 3845 008a D368     		ldr	r3, [r2, #12]
 3846 008c 43F40063 		orr	r3, r3, #2048
 3847 0090 0CE0     		b	.L521
 3848              	.L515:
 3849 0092 E06A     		ldr	r0, [r4, #44]
 3850 0094 164A     		ldr	r2, .L522
 3851 0096 8262     		str	r2, [r0, #40]
 3852 0098 164A     		ldr	r2, .L522+4
 3853 009a 0263     		str	r2, [r0, #48]
 3854 009c 2268     		ldr	r2, [r4]
 3855 009e 4032     		adds	r2, r2, #64
 3856 00a0 FFF7FEFF 		bl	HAL_DMA_Start_IT
 3857 00a4 2268     		ldr	r2, [r4]
 3858 00a6 D368     		ldr	r3, [r2, #12]
 3859 00a8 43F48053 		orr	r3, r3, #4096
 3860              	.L521:
 3861 00ac D360     		str	r3, [r2, #12]
 3862              	.L510:
 3863 00ae 0122     		movs	r2, #1
 3864 00b0 2068     		ldr	r0, [r4]
 3865 00b2 2946     		mov	r1, r5
 3866 00b4 FFF7FEFF 		bl	TIM_CCxChannelCmd
 3867 00b8 2368     		ldr	r3, [r4]
 3868 00ba 0F4A     		ldr	r2, .L522+8
 3869 00bc 9342     		cmp	r3, r2
 3870 00be 11D0     		beq	.L516
 3871 00c0 02F5A052 		add	r2, r2, #5120
 3872 00c4 9342     		cmp	r3, r2
 3873 00c6 0DD0     		beq	.L516
 3874 00c8 02F58062 		add	r2, r2, #1024
 3875 00cc 9342     		cmp	r3, r2
 3876 00ce 09D0     		beq	.L516
ARM GAS  /tmp/cciUsAoE.s 			page 66


 3877 00d0 02F58062 		add	r2, r2, #1024
 3878 00d4 9342     		cmp	r3, r2
 3879 00d6 05D0     		beq	.L516
 3880              	.L517:
 3881 00d8 1A68     		ldr	r2, [r3]
 3882 00da 0020     		movs	r0, #0
 3883 00dc 42F00102 		orr	r2, r2, #1
 3884 00e0 1A60     		str	r2, [r3]
 3885 00e2 38BD     		pop	{r3, r4, r5, pc}
 3886              	.L516:
 3887 00e4 5A6C     		ldr	r2, [r3, #68]
 3888 00e6 42F40042 		orr	r2, r2, #32768
 3889 00ea 5A64     		str	r2, [r3, #68]
 3890 00ec F4E7     		b	.L517
 3891              	.L520:
 3892 00ee 38BD     		pop	{r3, r4, r5, pc}
 3893              	.L523:
 3894              		.align	2
 3895              	.L522:
 3896 00f0 00000000 		.word	TIM_DMADelayPulseCplt
 3897 00f4 00000000 		.word	TIM_DMAError
 3898 00f8 002C0140 		.word	1073818624
 3900              		.section	.text.HAL_TIM_OC_Stop_DMA,"ax",%progbits
 3901              		.align	1
 3902              		.global	HAL_TIM_OC_Stop_DMA
 3903              		.thumb
 3904              		.thumb_func
 3906              	HAL_TIM_OC_Stop_DMA:
 3907              		@ args = 0, pretend = 0, frame = 0
 3908              		@ frame_needed = 0, uses_anonymous_args = 0
 3909 0000 10B5     		push	{r4, lr}
 3910 0002 0446     		mov	r4, r0
 3911 0004 0C29     		cmp	r1, #12
 3912 0006 1CD8     		bhi	.L525
 3913 0008 DFE801F0 		tbb	[pc, r1]
 3914              	.L527:
 3915 000c 07       		.byte	(.L526-.L527)/2
 3916 000d 1B       		.byte	(.L525-.L527)/2
 3917 000e 1B       		.byte	(.L525-.L527)/2
 3918 000f 1B       		.byte	(.L525-.L527)/2
 3919 0010 0C       		.byte	(.L528-.L527)/2
 3920 0011 1B       		.byte	(.L525-.L527)/2
 3921 0012 1B       		.byte	(.L525-.L527)/2
 3922 0013 1B       		.byte	(.L525-.L527)/2
 3923 0014 11       		.byte	(.L529-.L527)/2
 3924 0015 1B       		.byte	(.L525-.L527)/2
 3925 0016 1B       		.byte	(.L525-.L527)/2
 3926 0017 1B       		.byte	(.L525-.L527)/2
 3927 0018 16       		.byte	(.L530-.L527)/2
 3928 0019 00       		.p2align 1
 3929              	.L526:
 3930 001a 0268     		ldr	r2, [r0]
 3931 001c D368     		ldr	r3, [r2, #12]
 3932 001e 23F40073 		bic	r3, r3, #512
 3933 0022 0DE0     		b	.L536
 3934              	.L528:
 3935 0024 0268     		ldr	r2, [r0]
ARM GAS  /tmp/cciUsAoE.s 			page 67


 3936 0026 D368     		ldr	r3, [r2, #12]
 3937 0028 23F48063 		bic	r3, r3, #1024
 3938 002c 08E0     		b	.L536
 3939              	.L529:
 3940 002e 0268     		ldr	r2, [r0]
 3941 0030 D368     		ldr	r3, [r2, #12]
 3942 0032 23F40063 		bic	r3, r3, #2048
 3943 0036 03E0     		b	.L536
 3944              	.L530:
 3945 0038 0268     		ldr	r2, [r0]
 3946 003a D368     		ldr	r3, [r2, #12]
 3947 003c 23F48053 		bic	r3, r3, #4096
 3948              	.L536:
 3949 0040 D360     		str	r3, [r2, #12]
 3950              	.L525:
 3951 0042 0022     		movs	r2, #0
 3952 0044 2068     		ldr	r0, [r4]
 3953 0046 FFF7FEFF 		bl	TIM_CCxChannelCmd
 3954 004a 2368     		ldr	r3, [r4]
 3955 004c 174A     		ldr	r2, .L537
 3956 004e 9342     		cmp	r3, r2
 3957 0050 0BD0     		beq	.L531
 3958 0052 02F5A052 		add	r2, r2, #5120
 3959 0056 9342     		cmp	r3, r2
 3960 0058 07D0     		beq	.L531
 3961 005a 02F58062 		add	r2, r2, #1024
 3962 005e 9342     		cmp	r3, r2
 3963 0060 03D0     		beq	.L531
 3964 0062 02F58062 		add	r2, r2, #1024
 3965 0066 9342     		cmp	r3, r2
 3966 0068 0DD1     		bne	.L532
 3967              	.L531:
 3968 006a 41F21112 		movw	r2, #4369
 3969 006e 196A     		ldr	r1, [r3, #32]
 3970 0070 0A40     		ands	r2, r2, r1
 3971 0072 42B9     		cbnz	r2, .L532
 3972 0074 40F24442 		movw	r2, #1092
 3973 0078 196A     		ldr	r1, [r3, #32]
 3974 007a 0A40     		ands	r2, r2, r1
 3975 007c 1AB9     		cbnz	r2, .L532
 3976 007e 5A6C     		ldr	r2, [r3, #68]
 3977 0080 22F40042 		bic	r2, r2, #32768
 3978 0084 5A64     		str	r2, [r3, #68]
 3979              	.L532:
 3980 0086 41F21112 		movw	r2, #4369
 3981 008a 196A     		ldr	r1, [r3, #32]
 3982 008c 0A40     		ands	r2, r2, r1
 3983 008e 42B9     		cbnz	r2, .L533
 3984 0090 40F24442 		movw	r2, #1092
 3985 0094 196A     		ldr	r1, [r3, #32]
 3986 0096 0A40     		ands	r2, r2, r1
 3987 0098 1AB9     		cbnz	r2, .L533
 3988 009a 1A68     		ldr	r2, [r3]
 3989 009c 22F00102 		bic	r2, r2, #1
 3990 00a0 1A60     		str	r2, [r3]
 3991              	.L533:
 3992 00a2 0123     		movs	r3, #1
ARM GAS  /tmp/cciUsAoE.s 			page 68


 3993 00a4 84F83930 		strb	r3, [r4, #57]
 3994 00a8 0020     		movs	r0, #0
 3995 00aa 10BD     		pop	{r4, pc}
 3996              	.L538:
 3997              		.align	2
 3998              	.L537:
 3999 00ac 002C0140 		.word	1073818624
 4001              		.section	.text.HAL_TIM_PWM_Start,"ax",%progbits
 4002              		.align	1
 4003              		.global	HAL_TIM_PWM_Start
 4004              		.thumb
 4005              		.thumb_func
 4007              	HAL_TIM_PWM_Start:
 4008              		@ args = 0, pretend = 0, frame = 0
 4009              		@ frame_needed = 0, uses_anonymous_args = 0
 4010 0000 10B5     		push	{r4, lr}
 4011 0002 0446     		mov	r4, r0
 4012 0004 0122     		movs	r2, #1
 4013 0006 0068     		ldr	r0, [r0]
 4014 0008 FFF7FEFF 		bl	TIM_CCxChannelCmd
 4015 000c 2368     		ldr	r3, [r4]
 4016 000e 0C4A     		ldr	r2, .L543
 4017 0010 9342     		cmp	r3, r2
 4018 0012 0BD0     		beq	.L540
 4019 0014 02F5A052 		add	r2, r2, #5120
 4020 0018 9342     		cmp	r3, r2
 4021 001a 07D0     		beq	.L540
 4022 001c 02F58062 		add	r2, r2, #1024
 4023 0020 9342     		cmp	r3, r2
 4024 0022 03D0     		beq	.L540
 4025 0024 02F58062 		add	r2, r2, #1024
 4026 0028 9342     		cmp	r3, r2
 4027 002a 03D1     		bne	.L541
 4028              	.L540:
 4029 002c 5A6C     		ldr	r2, [r3, #68]
 4030 002e 42F40042 		orr	r2, r2, #32768
 4031 0032 5A64     		str	r2, [r3, #68]
 4032              	.L541:
 4033 0034 1A68     		ldr	r2, [r3]
 4034 0036 0020     		movs	r0, #0
 4035 0038 42F00102 		orr	r2, r2, #1
 4036 003c 1A60     		str	r2, [r3]
 4037 003e 10BD     		pop	{r4, pc}
 4038              	.L544:
 4039              		.align	2
 4040              	.L543:
 4041 0040 002C0140 		.word	1073818624
 4043              		.section	.text.HAL_TIM_PWM_Stop,"ax",%progbits
 4044              		.align	1
 4045              		.global	HAL_TIM_PWM_Stop
 4046              		.thumb
 4047              		.thumb_func
 4049              	HAL_TIM_PWM_Stop:
 4050              		@ args = 0, pretend = 0, frame = 0
 4051              		@ frame_needed = 0, uses_anonymous_args = 0
 4052 0000 10B5     		push	{r4, lr}
 4053 0002 0446     		mov	r4, r0
ARM GAS  /tmp/cciUsAoE.s 			page 69


 4054 0004 0022     		movs	r2, #0
 4055 0006 0068     		ldr	r0, [r0]
 4056 0008 FFF7FEFF 		bl	TIM_CCxChannelCmd
 4057 000c 2368     		ldr	r3, [r4]
 4058 000e 184A     		ldr	r2, .L551
 4059 0010 9342     		cmp	r3, r2
 4060 0012 0BD0     		beq	.L546
 4061 0014 02F5A052 		add	r2, r2, #5120
 4062 0018 9342     		cmp	r3, r2
 4063 001a 07D0     		beq	.L546
 4064 001c 02F58062 		add	r2, r2, #1024
 4065 0020 9342     		cmp	r3, r2
 4066 0022 03D0     		beq	.L546
 4067 0024 02F58062 		add	r2, r2, #1024
 4068 0028 9342     		cmp	r3, r2
 4069 002a 0DD1     		bne	.L547
 4070              	.L546:
 4071 002c 41F21112 		movw	r2, #4369
 4072 0030 196A     		ldr	r1, [r3, #32]
 4073 0032 0A40     		ands	r2, r2, r1
 4074 0034 42B9     		cbnz	r2, .L547
 4075 0036 40F24442 		movw	r2, #1092
 4076 003a 196A     		ldr	r1, [r3, #32]
 4077 003c 0A40     		ands	r2, r2, r1
 4078 003e 1AB9     		cbnz	r2, .L547
 4079 0040 5A6C     		ldr	r2, [r3, #68]
 4080 0042 22F40042 		bic	r2, r2, #32768
 4081 0046 5A64     		str	r2, [r3, #68]
 4082              	.L547:
 4083 0048 41F21112 		movw	r2, #4369
 4084 004c 196A     		ldr	r1, [r3, #32]
 4085 004e 0A40     		ands	r2, r2, r1
 4086 0050 42B9     		cbnz	r2, .L548
 4087 0052 40F24442 		movw	r2, #1092
 4088 0056 196A     		ldr	r1, [r3, #32]
 4089 0058 0A40     		ands	r2, r2, r1
 4090 005a 1AB9     		cbnz	r2, .L548
 4091 005c 1A68     		ldr	r2, [r3]
 4092 005e 22F00102 		bic	r2, r2, #1
 4093 0062 1A60     		str	r2, [r3]
 4094              	.L548:
 4095 0064 0123     		movs	r3, #1
 4096 0066 84F83930 		strb	r3, [r4, #57]
 4097 006a 0020     		movs	r0, #0
 4098 006c 10BD     		pop	{r4, pc}
 4099              	.L552:
 4100 006e 00BF     		.align	2
 4101              	.L551:
 4102 0070 002C0140 		.word	1073818624
 4104              		.section	.text.HAL_TIM_PWM_Start_IT,"ax",%progbits
 4105              		.align	1
 4106              		.global	HAL_TIM_PWM_Start_IT
 4107              		.thumb
 4108              		.thumb_func
 4110              	HAL_TIM_PWM_Start_IT:
 4111              		@ args = 0, pretend = 0, frame = 0
 4112              		@ frame_needed = 0, uses_anonymous_args = 0
ARM GAS  /tmp/cciUsAoE.s 			page 70


 4113 0000 10B5     		push	{r4, lr}
 4114 0002 0446     		mov	r4, r0
 4115 0004 0C29     		cmp	r1, #12
 4116 0006 1CD8     		bhi	.L554
 4117 0008 DFE801F0 		tbb	[pc, r1]
 4118              	.L556:
 4119 000c 07       		.byte	(.L555-.L556)/2
 4120 000d 1B       		.byte	(.L554-.L556)/2
 4121 000e 1B       		.byte	(.L554-.L556)/2
 4122 000f 1B       		.byte	(.L554-.L556)/2
 4123 0010 0C       		.byte	(.L557-.L556)/2
 4124 0011 1B       		.byte	(.L554-.L556)/2
 4125 0012 1B       		.byte	(.L554-.L556)/2
 4126 0013 1B       		.byte	(.L554-.L556)/2
 4127 0014 11       		.byte	(.L558-.L556)/2
 4128 0015 1B       		.byte	(.L554-.L556)/2
 4129 0016 1B       		.byte	(.L554-.L556)/2
 4130 0017 1B       		.byte	(.L554-.L556)/2
 4131 0018 16       		.byte	(.L559-.L556)/2
 4132 0019 00       		.p2align 1
 4133              	.L555:
 4134 001a 0268     		ldr	r2, [r0]
 4135 001c D368     		ldr	r3, [r2, #12]
 4136 001e 43F00203 		orr	r3, r3, #2
 4137 0022 0DE0     		b	.L563
 4138              	.L557:
 4139 0024 0268     		ldr	r2, [r0]
 4140 0026 D368     		ldr	r3, [r2, #12]
 4141 0028 43F00403 		orr	r3, r3, #4
 4142 002c 08E0     		b	.L563
 4143              	.L558:
 4144 002e 0268     		ldr	r2, [r0]
 4145 0030 D368     		ldr	r3, [r2, #12]
 4146 0032 43F00803 		orr	r3, r3, #8
 4147 0036 03E0     		b	.L563
 4148              	.L559:
 4149 0038 0268     		ldr	r2, [r0]
 4150 003a D368     		ldr	r3, [r2, #12]
 4151 003c 43F01003 		orr	r3, r3, #16
 4152              	.L563:
 4153 0040 D360     		str	r3, [r2, #12]
 4154              	.L554:
 4155 0042 0122     		movs	r2, #1
 4156 0044 2068     		ldr	r0, [r4]
 4157 0046 FFF7FEFF 		bl	TIM_CCxChannelCmd
 4158 004a 2368     		ldr	r3, [r4]
 4159 004c 0C4A     		ldr	r2, .L564
 4160 004e 9342     		cmp	r3, r2
 4161 0050 0BD0     		beq	.L560
 4162 0052 02F5A052 		add	r2, r2, #5120
 4163 0056 9342     		cmp	r3, r2
 4164 0058 07D0     		beq	.L560
 4165 005a 02F58062 		add	r2, r2, #1024
 4166 005e 9342     		cmp	r3, r2
 4167 0060 03D0     		beq	.L560
 4168 0062 02F58062 		add	r2, r2, #1024
 4169 0066 9342     		cmp	r3, r2
ARM GAS  /tmp/cciUsAoE.s 			page 71


 4170 0068 03D1     		bne	.L561
 4171              	.L560:
 4172 006a 5A6C     		ldr	r2, [r3, #68]
 4173 006c 42F40042 		orr	r2, r2, #32768
 4174 0070 5A64     		str	r2, [r3, #68]
 4175              	.L561:
 4176 0072 1A68     		ldr	r2, [r3]
 4177 0074 0020     		movs	r0, #0
 4178 0076 42F00102 		orr	r2, r2, #1
 4179 007a 1A60     		str	r2, [r3]
 4180 007c 10BD     		pop	{r4, pc}
 4181              	.L565:
 4182 007e 00BF     		.align	2
 4183              	.L564:
 4184 0080 002C0140 		.word	1073818624
 4186              		.section	.text.HAL_TIM_PWM_Stop_IT,"ax",%progbits
 4187              		.align	1
 4188              		.global	HAL_TIM_PWM_Stop_IT
 4189              		.thumb
 4190              		.thumb_func
 4192              	HAL_TIM_PWM_Stop_IT:
 4193              		@ args = 0, pretend = 0, frame = 0
 4194              		@ frame_needed = 0, uses_anonymous_args = 0
 4195 0000 10B5     		push	{r4, lr}
 4196 0002 0446     		mov	r4, r0
 4197 0004 0C29     		cmp	r1, #12
 4198 0006 1CD8     		bhi	.L567
 4199 0008 DFE801F0 		tbb	[pc, r1]
 4200              	.L569:
 4201 000c 07       		.byte	(.L568-.L569)/2
 4202 000d 1B       		.byte	(.L567-.L569)/2
 4203 000e 1B       		.byte	(.L567-.L569)/2
 4204 000f 1B       		.byte	(.L567-.L569)/2
 4205 0010 0C       		.byte	(.L570-.L569)/2
 4206 0011 1B       		.byte	(.L567-.L569)/2
 4207 0012 1B       		.byte	(.L567-.L569)/2
 4208 0013 1B       		.byte	(.L567-.L569)/2
 4209 0014 11       		.byte	(.L571-.L569)/2
 4210 0015 1B       		.byte	(.L567-.L569)/2
 4211 0016 1B       		.byte	(.L567-.L569)/2
 4212 0017 1B       		.byte	(.L567-.L569)/2
 4213 0018 16       		.byte	(.L572-.L569)/2
 4214 0019 00       		.p2align 1
 4215              	.L568:
 4216 001a 0268     		ldr	r2, [r0]
 4217 001c D368     		ldr	r3, [r2, #12]
 4218 001e 23F00203 		bic	r3, r3, #2
 4219 0022 0DE0     		b	.L578
 4220              	.L570:
 4221 0024 0268     		ldr	r2, [r0]
 4222 0026 D368     		ldr	r3, [r2, #12]
 4223 0028 23F00403 		bic	r3, r3, #4
 4224 002c 08E0     		b	.L578
 4225              	.L571:
 4226 002e 0268     		ldr	r2, [r0]
 4227 0030 D368     		ldr	r3, [r2, #12]
 4228 0032 23F00803 		bic	r3, r3, #8
ARM GAS  /tmp/cciUsAoE.s 			page 72


 4229 0036 03E0     		b	.L578
 4230              	.L572:
 4231 0038 0268     		ldr	r2, [r0]
 4232 003a D368     		ldr	r3, [r2, #12]
 4233 003c 23F01003 		bic	r3, r3, #16
 4234              	.L578:
 4235 0040 D360     		str	r3, [r2, #12]
 4236              	.L567:
 4237 0042 0022     		movs	r2, #0
 4238 0044 2068     		ldr	r0, [r4]
 4239 0046 FFF7FEFF 		bl	TIM_CCxChannelCmd
 4240 004a 2368     		ldr	r3, [r4]
 4241 004c 164A     		ldr	r2, .L579
 4242 004e 9342     		cmp	r3, r2
 4243 0050 0BD0     		beq	.L573
 4244 0052 02F5A052 		add	r2, r2, #5120
 4245 0056 9342     		cmp	r3, r2
 4246 0058 07D0     		beq	.L573
 4247 005a 02F58062 		add	r2, r2, #1024
 4248 005e 9342     		cmp	r3, r2
 4249 0060 03D0     		beq	.L573
 4250 0062 02F58062 		add	r2, r2, #1024
 4251 0066 9342     		cmp	r3, r2
 4252 0068 0DD1     		bne	.L574
 4253              	.L573:
 4254 006a 41F21112 		movw	r2, #4369
 4255 006e 196A     		ldr	r1, [r3, #32]
 4256 0070 0A40     		ands	r2, r2, r1
 4257 0072 42B9     		cbnz	r2, .L574
 4258 0074 40F24442 		movw	r2, #1092
 4259 0078 196A     		ldr	r1, [r3, #32]
 4260 007a 0A40     		ands	r2, r2, r1
 4261 007c 1AB9     		cbnz	r2, .L574
 4262 007e 5A6C     		ldr	r2, [r3, #68]
 4263 0080 22F40042 		bic	r2, r2, #32768
 4264 0084 5A64     		str	r2, [r3, #68]
 4265              	.L574:
 4266 0086 41F21112 		movw	r2, #4369
 4267 008a 196A     		ldr	r1, [r3, #32]
 4268 008c 0A40     		ands	r2, r2, r1
 4269 008e 42B9     		cbnz	r2, .L577
 4270 0090 40F24442 		movw	r2, #1092
 4271 0094 196A     		ldr	r1, [r3, #32]
 4272 0096 0A40     		ands	r2, r2, r1
 4273 0098 1AB9     		cbnz	r2, .L577
 4274 009a 1A68     		ldr	r2, [r3]
 4275 009c 22F00102 		bic	r2, r2, #1
 4276 00a0 1A60     		str	r2, [r3]
 4277              	.L577:
 4278 00a2 0020     		movs	r0, #0
 4279 00a4 10BD     		pop	{r4, pc}
 4280              	.L580:
 4281 00a6 00BF     		.align	2
 4282              	.L579:
 4283 00a8 002C0140 		.word	1073818624
 4285              		.section	.text.HAL_TIM_PWM_Start_DMA,"ax",%progbits
 4286              		.align	1
ARM GAS  /tmp/cciUsAoE.s 			page 73


 4287              		.global	HAL_TIM_PWM_Start_DMA
 4288              		.thumb
 4289              		.thumb_func
 4291              	HAL_TIM_PWM_Start_DMA:
 4292              		@ args = 0, pretend = 0, frame = 0
 4293              		@ frame_needed = 0, uses_anonymous_args = 0
 4294 0000 38B5     		push	{r3, r4, r5, lr}
 4295 0002 0446     		mov	r4, r0
 4296 0004 90F83900 		ldrb	r0, [r0, #57]	@ zero_extendqisi2
 4297 0008 0D46     		mov	r5, r1
 4298 000a C0B2     		uxtb	r0, r0
 4299 000c 0228     		cmp	r0, #2
 4300 000e 1146     		mov	r1, r2
 4301 0010 6DD0     		beq	.L595
 4302 0012 94F83900 		ldrb	r0, [r4, #57]	@ zero_extendqisi2
 4303 0016 C0B2     		uxtb	r0, r0
 4304 0018 0128     		cmp	r0, #1
 4305 001a 05D1     		bne	.L583
 4306 001c 0AB9     		cbnz	r2, .L584
 4307 001e 002B     		cmp	r3, #0
 4308 0020 65D1     		bne	.L595
 4309              	.L584:
 4310 0022 0222     		movs	r2, #2
 4311 0024 84F83920 		strb	r2, [r4, #57]
 4312              	.L583:
 4313 0028 0C2D     		cmp	r5, #12
 4314 002a 40D8     		bhi	.L585
 4315 002c DFE805F0 		tbb	[pc, r5]
 4316              	.L587:
 4317 0030 07       		.byte	(.L586-.L587)/2
 4318 0031 3F       		.byte	(.L585-.L587)/2
 4319 0032 3F       		.byte	(.L585-.L587)/2
 4320 0033 3F       		.byte	(.L585-.L587)/2
 4321 0034 15       		.byte	(.L588-.L587)/2
 4322 0035 3F       		.byte	(.L585-.L587)/2
 4323 0036 3F       		.byte	(.L585-.L587)/2
 4324 0037 3F       		.byte	(.L585-.L587)/2
 4325 0038 23       		.byte	(.L589-.L587)/2
 4326 0039 3F       		.byte	(.L585-.L587)/2
 4327 003a 3F       		.byte	(.L585-.L587)/2
 4328 003b 3F       		.byte	(.L585-.L587)/2
 4329 003c 31       		.byte	(.L590-.L587)/2
 4330 003d 00       		.p2align 1
 4331              	.L586:
 4332 003e 206A     		ldr	r0, [r4, #32]
 4333 0040 2B4A     		ldr	r2, .L597
 4334 0042 8262     		str	r2, [r0, #40]
 4335 0044 2B4A     		ldr	r2, .L597+4
 4336 0046 0263     		str	r2, [r0, #48]
 4337 0048 2268     		ldr	r2, [r4]
 4338 004a 3432     		adds	r2, r2, #52
 4339 004c FFF7FEFF 		bl	HAL_DMA_Start_IT
 4340 0050 2268     		ldr	r2, [r4]
 4341 0052 D368     		ldr	r3, [r2, #12]
 4342 0054 43F40073 		orr	r3, r3, #512
 4343 0058 28E0     		b	.L596
 4344              	.L588:
ARM GAS  /tmp/cciUsAoE.s 			page 74


 4345 005a 606A     		ldr	r0, [r4, #36]
 4346 005c 244A     		ldr	r2, .L597
 4347 005e 8262     		str	r2, [r0, #40]
 4348 0060 244A     		ldr	r2, .L597+4
 4349 0062 0263     		str	r2, [r0, #48]
 4350 0064 2268     		ldr	r2, [r4]
 4351 0066 3832     		adds	r2, r2, #56
 4352 0068 FFF7FEFF 		bl	HAL_DMA_Start_IT
 4353 006c 2268     		ldr	r2, [r4]
 4354 006e D368     		ldr	r3, [r2, #12]
 4355 0070 43F48063 		orr	r3, r3, #1024
 4356 0074 1AE0     		b	.L596
 4357              	.L589:
 4358 0076 A06A     		ldr	r0, [r4, #40]
 4359 0078 1D4A     		ldr	r2, .L597
 4360 007a 8262     		str	r2, [r0, #40]
 4361 007c 1D4A     		ldr	r2, .L597+4
 4362 007e 0263     		str	r2, [r0, #48]
 4363 0080 2268     		ldr	r2, [r4]
 4364 0082 3C32     		adds	r2, r2, #60
 4365 0084 FFF7FEFF 		bl	HAL_DMA_Start_IT
 4366 0088 2268     		ldr	r2, [r4]
 4367 008a D368     		ldr	r3, [r2, #12]
 4368 008c 43F40063 		orr	r3, r3, #2048
 4369 0090 0CE0     		b	.L596
 4370              	.L590:
 4371 0092 E06A     		ldr	r0, [r4, #44]
 4372 0094 164A     		ldr	r2, .L597
 4373 0096 8262     		str	r2, [r0, #40]
 4374 0098 164A     		ldr	r2, .L597+4
 4375 009a 0263     		str	r2, [r0, #48]
 4376 009c 2268     		ldr	r2, [r4]
 4377 009e 4032     		adds	r2, r2, #64
 4378 00a0 FFF7FEFF 		bl	HAL_DMA_Start_IT
 4379 00a4 2268     		ldr	r2, [r4]
 4380 00a6 D368     		ldr	r3, [r2, #12]
 4381 00a8 43F48053 		orr	r3, r3, #4096
 4382              	.L596:
 4383 00ac D360     		str	r3, [r2, #12]
 4384              	.L585:
 4385 00ae 0122     		movs	r2, #1
 4386 00b0 2068     		ldr	r0, [r4]
 4387 00b2 2946     		mov	r1, r5
 4388 00b4 FFF7FEFF 		bl	TIM_CCxChannelCmd
 4389 00b8 2368     		ldr	r3, [r4]
 4390 00ba 0F4A     		ldr	r2, .L597+8
 4391 00bc 9342     		cmp	r3, r2
 4392 00be 11D0     		beq	.L591
 4393 00c0 02F5A052 		add	r2, r2, #5120
 4394 00c4 9342     		cmp	r3, r2
 4395 00c6 0DD0     		beq	.L591
 4396 00c8 02F58062 		add	r2, r2, #1024
 4397 00cc 9342     		cmp	r3, r2
 4398 00ce 09D0     		beq	.L591
 4399 00d0 02F58062 		add	r2, r2, #1024
 4400 00d4 9342     		cmp	r3, r2
 4401 00d6 05D0     		beq	.L591
ARM GAS  /tmp/cciUsAoE.s 			page 75


 4402              	.L592:
 4403 00d8 1A68     		ldr	r2, [r3]
 4404 00da 0020     		movs	r0, #0
 4405 00dc 42F00102 		orr	r2, r2, #1
 4406 00e0 1A60     		str	r2, [r3]
 4407 00e2 38BD     		pop	{r3, r4, r5, pc}
 4408              	.L591:
 4409 00e4 5A6C     		ldr	r2, [r3, #68]
 4410 00e6 42F40042 		orr	r2, r2, #32768
 4411 00ea 5A64     		str	r2, [r3, #68]
 4412 00ec F4E7     		b	.L592
 4413              	.L595:
 4414 00ee 38BD     		pop	{r3, r4, r5, pc}
 4415              	.L598:
 4416              		.align	2
 4417              	.L597:
 4418 00f0 00000000 		.word	TIM_DMADelayPulseCplt
 4419 00f4 00000000 		.word	TIM_DMAError
 4420 00f8 002C0140 		.word	1073818624
 4422              		.section	.text.HAL_TIM_PWM_Stop_DMA,"ax",%progbits
 4423              		.align	1
 4424              		.global	HAL_TIM_PWM_Stop_DMA
 4425              		.thumb
 4426              		.thumb_func
 4428              	HAL_TIM_PWM_Stop_DMA:
 4429              		@ args = 0, pretend = 0, frame = 0
 4430              		@ frame_needed = 0, uses_anonymous_args = 0
 4431 0000 10B5     		push	{r4, lr}
 4432 0002 0446     		mov	r4, r0
 4433 0004 0C29     		cmp	r1, #12
 4434 0006 1CD8     		bhi	.L600
 4435 0008 DFE801F0 		tbb	[pc, r1]
 4436              	.L602:
 4437 000c 07       		.byte	(.L601-.L602)/2
 4438 000d 1B       		.byte	(.L600-.L602)/2
 4439 000e 1B       		.byte	(.L600-.L602)/2
 4440 000f 1B       		.byte	(.L600-.L602)/2
 4441 0010 0C       		.byte	(.L603-.L602)/2
 4442 0011 1B       		.byte	(.L600-.L602)/2
 4443 0012 1B       		.byte	(.L600-.L602)/2
 4444 0013 1B       		.byte	(.L600-.L602)/2
 4445 0014 11       		.byte	(.L604-.L602)/2
 4446 0015 1B       		.byte	(.L600-.L602)/2
 4447 0016 1B       		.byte	(.L600-.L602)/2
 4448 0017 1B       		.byte	(.L600-.L602)/2
 4449 0018 16       		.byte	(.L605-.L602)/2
 4450 0019 00       		.p2align 1
 4451              	.L601:
 4452 001a 0268     		ldr	r2, [r0]
 4453 001c D368     		ldr	r3, [r2, #12]
 4454 001e 23F40073 		bic	r3, r3, #512
 4455 0022 0DE0     		b	.L611
 4456              	.L603:
 4457 0024 0268     		ldr	r2, [r0]
 4458 0026 D368     		ldr	r3, [r2, #12]
 4459 0028 23F48063 		bic	r3, r3, #1024
 4460 002c 08E0     		b	.L611
ARM GAS  /tmp/cciUsAoE.s 			page 76


 4461              	.L604:
 4462 002e 0268     		ldr	r2, [r0]
 4463 0030 D368     		ldr	r3, [r2, #12]
 4464 0032 23F40063 		bic	r3, r3, #2048
 4465 0036 03E0     		b	.L611
 4466              	.L605:
 4467 0038 0268     		ldr	r2, [r0]
 4468 003a D368     		ldr	r3, [r2, #12]
 4469 003c 23F48053 		bic	r3, r3, #4096
 4470              	.L611:
 4471 0040 D360     		str	r3, [r2, #12]
 4472              	.L600:
 4473 0042 0022     		movs	r2, #0
 4474 0044 2068     		ldr	r0, [r4]
 4475 0046 FFF7FEFF 		bl	TIM_CCxChannelCmd
 4476 004a 2368     		ldr	r3, [r4]
 4477 004c 174A     		ldr	r2, .L612
 4478 004e 9342     		cmp	r3, r2
 4479 0050 0BD0     		beq	.L606
 4480 0052 02F5A052 		add	r2, r2, #5120
 4481 0056 9342     		cmp	r3, r2
 4482 0058 07D0     		beq	.L606
 4483 005a 02F58062 		add	r2, r2, #1024
 4484 005e 9342     		cmp	r3, r2
 4485 0060 03D0     		beq	.L606
 4486 0062 02F58062 		add	r2, r2, #1024
 4487 0066 9342     		cmp	r3, r2
 4488 0068 0DD1     		bne	.L607
 4489              	.L606:
 4490 006a 41F21112 		movw	r2, #4369
 4491 006e 196A     		ldr	r1, [r3, #32]
 4492 0070 0A40     		ands	r2, r2, r1
 4493 0072 42B9     		cbnz	r2, .L607
 4494 0074 40F24442 		movw	r2, #1092
 4495 0078 196A     		ldr	r1, [r3, #32]
 4496 007a 0A40     		ands	r2, r2, r1
 4497 007c 1AB9     		cbnz	r2, .L607
 4498 007e 5A6C     		ldr	r2, [r3, #68]
 4499 0080 22F40042 		bic	r2, r2, #32768
 4500 0084 5A64     		str	r2, [r3, #68]
 4501              	.L607:
 4502 0086 41F21112 		movw	r2, #4369
 4503 008a 196A     		ldr	r1, [r3, #32]
 4504 008c 0A40     		ands	r2, r2, r1
 4505 008e 42B9     		cbnz	r2, .L608
 4506 0090 40F24442 		movw	r2, #1092
 4507 0094 196A     		ldr	r1, [r3, #32]
 4508 0096 0A40     		ands	r2, r2, r1
 4509 0098 1AB9     		cbnz	r2, .L608
 4510 009a 1A68     		ldr	r2, [r3]
 4511 009c 22F00102 		bic	r2, r2, #1
 4512 00a0 1A60     		str	r2, [r3]
 4513              	.L608:
 4514 00a2 0123     		movs	r3, #1
 4515 00a4 84F83930 		strb	r3, [r4, #57]
 4516 00a8 0020     		movs	r0, #0
 4517 00aa 10BD     		pop	{r4, pc}
ARM GAS  /tmp/cciUsAoE.s 			page 77


 4518              	.L613:
 4519              		.align	2
 4520              	.L612:
 4521 00ac 002C0140 		.word	1073818624
 4523              		.section	.text.HAL_TIM_IC_Start,"ax",%progbits
 4524              		.align	1
 4525              		.global	HAL_TIM_IC_Start
 4526              		.thumb
 4527              		.thumb_func
 4529              	HAL_TIM_IC_Start:
 4530              		@ args = 0, pretend = 0, frame = 0
 4531              		@ frame_needed = 0, uses_anonymous_args = 0
 4532 0000 10B5     		push	{r4, lr}
 4533 0002 0446     		mov	r4, r0
 4534 0004 0122     		movs	r2, #1
 4535 0006 0068     		ldr	r0, [r0]
 4536 0008 FFF7FEFF 		bl	TIM_CCxChannelCmd
 4537 000c 2268     		ldr	r2, [r4]
 4538 000e 0020     		movs	r0, #0
 4539 0010 1368     		ldr	r3, [r2]
 4540 0012 43F00103 		orr	r3, r3, #1
 4541 0016 1360     		str	r3, [r2]
 4542 0018 10BD     		pop	{r4, pc}
 4544              		.section	.text.HAL_TIM_IC_Stop,"ax",%progbits
 4545              		.align	1
 4546              		.global	HAL_TIM_IC_Stop
 4547              		.thumb
 4548              		.thumb_func
 4550              	HAL_TIM_IC_Stop:
 4551              		@ args = 0, pretend = 0, frame = 0
 4552              		@ frame_needed = 0, uses_anonymous_args = 0
 4553 0000 10B5     		push	{r4, lr}
 4554 0002 0446     		mov	r4, r0
 4555 0004 0022     		movs	r2, #0
 4556 0006 0068     		ldr	r0, [r0]
 4557 0008 FFF7FEFF 		bl	TIM_CCxChannelCmd
 4558 000c 41F21112 		movw	r2, #4369
 4559 0010 2368     		ldr	r3, [r4]
 4560 0012 196A     		ldr	r1, [r3, #32]
 4561 0014 0A40     		ands	r2, r2, r1
 4562 0016 42B9     		cbnz	r2, .L616
 4563 0018 40F24442 		movw	r2, #1092
 4564 001c 196A     		ldr	r1, [r3, #32]
 4565 001e 0A40     		ands	r2, r2, r1
 4566 0020 1AB9     		cbnz	r2, .L616
 4567 0022 1A68     		ldr	r2, [r3]
 4568 0024 22F00102 		bic	r2, r2, #1
 4569 0028 1A60     		str	r2, [r3]
 4570              	.L616:
 4571 002a 0020     		movs	r0, #0
 4572 002c 10BD     		pop	{r4, pc}
 4574              		.section	.text.HAL_TIM_IC_Start_IT,"ax",%progbits
 4575              		.align	1
 4576              		.global	HAL_TIM_IC_Start_IT
 4577              		.thumb
 4578              		.thumb_func
 4580              	HAL_TIM_IC_Start_IT:
ARM GAS  /tmp/cciUsAoE.s 			page 78


 4581              		@ args = 0, pretend = 0, frame = 0
 4582              		@ frame_needed = 0, uses_anonymous_args = 0
 4583 0000 10B5     		push	{r4, lr}
 4584 0002 0446     		mov	r4, r0
 4585 0004 0C29     		cmp	r1, #12
 4586 0006 1CD8     		bhi	.L618
 4587 0008 DFE801F0 		tbb	[pc, r1]
 4588              	.L620:
 4589 000c 07       		.byte	(.L619-.L620)/2
 4590 000d 1B       		.byte	(.L618-.L620)/2
 4591 000e 1B       		.byte	(.L618-.L620)/2
 4592 000f 1B       		.byte	(.L618-.L620)/2
 4593 0010 0C       		.byte	(.L621-.L620)/2
 4594 0011 1B       		.byte	(.L618-.L620)/2
 4595 0012 1B       		.byte	(.L618-.L620)/2
 4596 0013 1B       		.byte	(.L618-.L620)/2
 4597 0014 11       		.byte	(.L622-.L620)/2
 4598 0015 1B       		.byte	(.L618-.L620)/2
 4599 0016 1B       		.byte	(.L618-.L620)/2
 4600 0017 1B       		.byte	(.L618-.L620)/2
 4601 0018 16       		.byte	(.L623-.L620)/2
 4602 0019 00       		.p2align 1
 4603              	.L619:
 4604 001a 0268     		ldr	r2, [r0]
 4605 001c D368     		ldr	r3, [r2, #12]
 4606 001e 43F00203 		orr	r3, r3, #2
 4607 0022 0DE0     		b	.L624
 4608              	.L621:
 4609 0024 0268     		ldr	r2, [r0]
 4610 0026 D368     		ldr	r3, [r2, #12]
 4611 0028 43F00403 		orr	r3, r3, #4
 4612 002c 08E0     		b	.L624
 4613              	.L622:
 4614 002e 0268     		ldr	r2, [r0]
 4615 0030 D368     		ldr	r3, [r2, #12]
 4616 0032 43F00803 		orr	r3, r3, #8
 4617 0036 03E0     		b	.L624
 4618              	.L623:
 4619 0038 0268     		ldr	r2, [r0]
 4620 003a D368     		ldr	r3, [r2, #12]
 4621 003c 43F01003 		orr	r3, r3, #16
 4622              	.L624:
 4623 0040 D360     		str	r3, [r2, #12]
 4624              	.L618:
 4625 0042 2068     		ldr	r0, [r4]
 4626 0044 0122     		movs	r2, #1
 4627 0046 FFF7FEFF 		bl	TIM_CCxChannelCmd
 4628 004a 2268     		ldr	r2, [r4]
 4629 004c 0020     		movs	r0, #0
 4630 004e 1368     		ldr	r3, [r2]
 4631 0050 43F00103 		orr	r3, r3, #1
 4632 0054 1360     		str	r3, [r2]
 4633 0056 10BD     		pop	{r4, pc}
 4635              		.section	.text.HAL_TIM_IC_Stop_IT,"ax",%progbits
 4636              		.align	1
 4637              		.global	HAL_TIM_IC_Stop_IT
 4638              		.thumb
ARM GAS  /tmp/cciUsAoE.s 			page 79


 4639              		.thumb_func
 4641              	HAL_TIM_IC_Stop_IT:
 4642              		@ args = 0, pretend = 0, frame = 0
 4643              		@ frame_needed = 0, uses_anonymous_args = 0
 4644 0000 10B5     		push	{r4, lr}
 4645 0002 0446     		mov	r4, r0
 4646 0004 0C29     		cmp	r1, #12
 4647 0006 1CD8     		bhi	.L626
 4648 0008 DFE801F0 		tbb	[pc, r1]
 4649              	.L628:
 4650 000c 07       		.byte	(.L627-.L628)/2
 4651 000d 1B       		.byte	(.L626-.L628)/2
 4652 000e 1B       		.byte	(.L626-.L628)/2
 4653 000f 1B       		.byte	(.L626-.L628)/2
 4654 0010 0C       		.byte	(.L629-.L628)/2
 4655 0011 1B       		.byte	(.L626-.L628)/2
 4656 0012 1B       		.byte	(.L626-.L628)/2
 4657 0013 1B       		.byte	(.L626-.L628)/2
 4658 0014 11       		.byte	(.L630-.L628)/2
 4659 0015 1B       		.byte	(.L626-.L628)/2
 4660 0016 1B       		.byte	(.L626-.L628)/2
 4661 0017 1B       		.byte	(.L626-.L628)/2
 4662 0018 16       		.byte	(.L631-.L628)/2
 4663 0019 00       		.p2align 1
 4664              	.L627:
 4665 001a 0268     		ldr	r2, [r0]
 4666 001c D368     		ldr	r3, [r2, #12]
 4667 001e 23F00203 		bic	r3, r3, #2
 4668 0022 0DE0     		b	.L633
 4669              	.L629:
 4670 0024 0268     		ldr	r2, [r0]
 4671 0026 D368     		ldr	r3, [r2, #12]
 4672 0028 23F00403 		bic	r3, r3, #4
 4673 002c 08E0     		b	.L633
 4674              	.L630:
 4675 002e 0268     		ldr	r2, [r0]
 4676 0030 D368     		ldr	r3, [r2, #12]
 4677 0032 23F00803 		bic	r3, r3, #8
 4678 0036 03E0     		b	.L633
 4679              	.L631:
 4680 0038 0268     		ldr	r2, [r0]
 4681 003a D368     		ldr	r3, [r2, #12]
 4682 003c 23F01003 		bic	r3, r3, #16
 4683              	.L633:
 4684 0040 D360     		str	r3, [r2, #12]
 4685              	.L626:
 4686 0042 0022     		movs	r2, #0
 4687 0044 2068     		ldr	r0, [r4]
 4688 0046 FFF7FEFF 		bl	TIM_CCxChannelCmd
 4689 004a 41F21112 		movw	r2, #4369
 4690 004e 2368     		ldr	r3, [r4]
 4691 0050 196A     		ldr	r1, [r3, #32]
 4692 0052 0A40     		ands	r2, r2, r1
 4693 0054 42B9     		cbnz	r2, .L632
 4694 0056 40F24442 		movw	r2, #1092
 4695 005a 196A     		ldr	r1, [r3, #32]
 4696 005c 0A40     		ands	r2, r2, r1
ARM GAS  /tmp/cciUsAoE.s 			page 80


 4697 005e 1AB9     		cbnz	r2, .L632
 4698 0060 1A68     		ldr	r2, [r3]
 4699 0062 22F00102 		bic	r2, r2, #1
 4700 0066 1A60     		str	r2, [r3]
 4701              	.L632:
 4702 0068 0020     		movs	r0, #0
 4703 006a 10BD     		pop	{r4, pc}
 4705              		.section	.text.HAL_TIM_IC_Start_DMA,"ax",%progbits
 4706              		.align	1
 4707              		.global	HAL_TIM_IC_Start_DMA
 4708              		.thumb
 4709              		.thumb_func
 4711              	HAL_TIM_IC_Start_DMA:
 4712              		@ args = 0, pretend = 0, frame = 0
 4713              		@ frame_needed = 0, uses_anonymous_args = 0
 4714 0000 38B5     		push	{r3, r4, r5, lr}
 4715 0002 0446     		mov	r4, r0
 4716 0004 90F83900 		ldrb	r0, [r0, #57]	@ zero_extendqisi2
 4717 0008 0D46     		mov	r5, r1
 4718 000a C0B2     		uxtb	r0, r0
 4719 000c 0228     		cmp	r0, #2
 4720 000e 58D0     		beq	.L635
 4721 0010 94F83900 		ldrb	r0, [r4, #57]	@ zero_extendqisi2
 4722 0014 C0B2     		uxtb	r0, r0
 4723 0016 0128     		cmp	r0, #1
 4724 0018 05D1     		bne	.L636
 4725 001a 0AB9     		cbnz	r2, .L637
 4726 001c 002B     		cmp	r3, #0
 4727 001e 50D1     		bne	.L635
 4728              	.L637:
 4729 0020 0221     		movs	r1, #2
 4730 0022 84F83910 		strb	r1, [r4, #57]
 4731              	.L636:
 4732 0026 0C2D     		cmp	r5, #12
 4733 0028 40D8     		bhi	.L638
 4734 002a DFE805F0 		tbb	[pc, r5]
 4735              	.L640:
 4736 002e 07       		.byte	(.L639-.L640)/2
 4737 002f 3F       		.byte	(.L638-.L640)/2
 4738 0030 3F       		.byte	(.L638-.L640)/2
 4739 0031 3F       		.byte	(.L638-.L640)/2
 4740 0032 15       		.byte	(.L641-.L640)/2
 4741 0033 3F       		.byte	(.L638-.L640)/2
 4742 0034 3F       		.byte	(.L638-.L640)/2
 4743 0035 3F       		.byte	(.L638-.L640)/2
 4744 0036 23       		.byte	(.L642-.L640)/2
 4745 0037 3F       		.byte	(.L638-.L640)/2
 4746 0038 3F       		.byte	(.L638-.L640)/2
 4747 0039 3F       		.byte	(.L638-.L640)/2
 4748 003a 31       		.byte	(.L643-.L640)/2
 4749 003b 00       		.p2align 1
 4750              	.L639:
 4751 003c 206A     		ldr	r0, [r4, #32]
 4752 003e 2149     		ldr	r1, .L647
 4753 0040 8162     		str	r1, [r0, #40]
 4754 0042 2149     		ldr	r1, .L647+4
 4755 0044 0163     		str	r1, [r0, #48]
ARM GAS  /tmp/cciUsAoE.s 			page 81


 4756 0046 2168     		ldr	r1, [r4]
 4757 0048 3431     		adds	r1, r1, #52
 4758 004a FFF7FEFF 		bl	HAL_DMA_Start_IT
 4759 004e 2268     		ldr	r2, [r4]
 4760 0050 D368     		ldr	r3, [r2, #12]
 4761 0052 43F40073 		orr	r3, r3, #512
 4762 0056 28E0     		b	.L646
 4763              	.L641:
 4764 0058 606A     		ldr	r0, [r4, #36]
 4765 005a 1A49     		ldr	r1, .L647
 4766 005c 8162     		str	r1, [r0, #40]
 4767 005e 1A49     		ldr	r1, .L647+4
 4768 0060 0163     		str	r1, [r0, #48]
 4769 0062 2168     		ldr	r1, [r4]
 4770 0064 3831     		adds	r1, r1, #56
 4771 0066 FFF7FEFF 		bl	HAL_DMA_Start_IT
 4772 006a 2268     		ldr	r2, [r4]
 4773 006c D368     		ldr	r3, [r2, #12]
 4774 006e 43F48063 		orr	r3, r3, #1024
 4775 0072 1AE0     		b	.L646
 4776              	.L642:
 4777 0074 A06A     		ldr	r0, [r4, #40]
 4778 0076 1349     		ldr	r1, .L647
 4779 0078 8162     		str	r1, [r0, #40]
 4780 007a 1349     		ldr	r1, .L647+4
 4781 007c 0163     		str	r1, [r0, #48]
 4782 007e 2168     		ldr	r1, [r4]
 4783 0080 3C31     		adds	r1, r1, #60
 4784 0082 FFF7FEFF 		bl	HAL_DMA_Start_IT
 4785 0086 2268     		ldr	r2, [r4]
 4786 0088 D368     		ldr	r3, [r2, #12]
 4787 008a 43F40063 		orr	r3, r3, #2048
 4788 008e 0CE0     		b	.L646
 4789              	.L643:
 4790 0090 E06A     		ldr	r0, [r4, #44]
 4791 0092 0C49     		ldr	r1, .L647
 4792 0094 8162     		str	r1, [r0, #40]
 4793 0096 0C49     		ldr	r1, .L647+4
 4794 0098 0163     		str	r1, [r0, #48]
 4795 009a 2168     		ldr	r1, [r4]
 4796 009c 4031     		adds	r1, r1, #64
 4797 009e FFF7FEFF 		bl	HAL_DMA_Start_IT
 4798 00a2 2268     		ldr	r2, [r4]
 4799 00a4 D368     		ldr	r3, [r2, #12]
 4800 00a6 43F48053 		orr	r3, r3, #4096
 4801              	.L646:
 4802 00aa D360     		str	r3, [r2, #12]
 4803              	.L638:
 4804 00ac 2068     		ldr	r0, [r4]
 4805 00ae 0122     		movs	r2, #1
 4806 00b0 2946     		mov	r1, r5
 4807 00b2 FFF7FEFF 		bl	TIM_CCxChannelCmd
 4808 00b6 2268     		ldr	r2, [r4]
 4809 00b8 0020     		movs	r0, #0
 4810 00ba 1368     		ldr	r3, [r2]
 4811 00bc 43F00103 		orr	r3, r3, #1
 4812 00c0 1360     		str	r3, [r2]
ARM GAS  /tmp/cciUsAoE.s 			page 82


 4813              	.L635:
 4814 00c2 38BD     		pop	{r3, r4, r5, pc}
 4815              	.L648:
 4816              		.align	2
 4817              	.L647:
 4818 00c4 00000000 		.word	TIM_DMACaptureCplt
 4819 00c8 00000000 		.word	TIM_DMAError
 4821              		.section	.text.HAL_TIM_IC_Stop_DMA,"ax",%progbits
 4822              		.align	1
 4823              		.global	HAL_TIM_IC_Stop_DMA
 4824              		.thumb
 4825              		.thumb_func
 4827              	HAL_TIM_IC_Stop_DMA:
 4828              		@ args = 0, pretend = 0, frame = 0
 4829              		@ frame_needed = 0, uses_anonymous_args = 0
 4830 0000 10B5     		push	{r4, lr}
 4831 0002 0446     		mov	r4, r0
 4832 0004 0C29     		cmp	r1, #12
 4833 0006 1CD8     		bhi	.L650
 4834 0008 DFE801F0 		tbb	[pc, r1]
 4835              	.L652:
 4836 000c 07       		.byte	(.L651-.L652)/2
 4837 000d 1B       		.byte	(.L650-.L652)/2
 4838 000e 1B       		.byte	(.L650-.L652)/2
 4839 000f 1B       		.byte	(.L650-.L652)/2
 4840 0010 0C       		.byte	(.L653-.L652)/2
 4841 0011 1B       		.byte	(.L650-.L652)/2
 4842 0012 1B       		.byte	(.L650-.L652)/2
 4843 0013 1B       		.byte	(.L650-.L652)/2
 4844 0014 11       		.byte	(.L654-.L652)/2
 4845 0015 1B       		.byte	(.L650-.L652)/2
 4846 0016 1B       		.byte	(.L650-.L652)/2
 4847 0017 1B       		.byte	(.L650-.L652)/2
 4848 0018 16       		.byte	(.L655-.L652)/2
 4849 0019 00       		.p2align 1
 4850              	.L651:
 4851 001a 0268     		ldr	r2, [r0]
 4852 001c D368     		ldr	r3, [r2, #12]
 4853 001e 23F40073 		bic	r3, r3, #512
 4854 0022 0DE0     		b	.L657
 4855              	.L653:
 4856 0024 0268     		ldr	r2, [r0]
 4857 0026 D368     		ldr	r3, [r2, #12]
 4858 0028 23F48063 		bic	r3, r3, #1024
 4859 002c 08E0     		b	.L657
 4860              	.L654:
 4861 002e 0268     		ldr	r2, [r0]
 4862 0030 D368     		ldr	r3, [r2, #12]
 4863 0032 23F40063 		bic	r3, r3, #2048
 4864 0036 03E0     		b	.L657
 4865              	.L655:
 4866 0038 0268     		ldr	r2, [r0]
 4867 003a D368     		ldr	r3, [r2, #12]
 4868 003c 23F48053 		bic	r3, r3, #4096
 4869              	.L657:
 4870 0040 D360     		str	r3, [r2, #12]
 4871              	.L650:
ARM GAS  /tmp/cciUsAoE.s 			page 83


 4872 0042 0022     		movs	r2, #0
 4873 0044 2068     		ldr	r0, [r4]
 4874 0046 FFF7FEFF 		bl	TIM_CCxChannelCmd
 4875 004a 41F21112 		movw	r2, #4369
 4876 004e 2368     		ldr	r3, [r4]
 4877 0050 196A     		ldr	r1, [r3, #32]
 4878 0052 0A40     		ands	r2, r2, r1
 4879 0054 42B9     		cbnz	r2, .L656
 4880 0056 40F24442 		movw	r2, #1092
 4881 005a 196A     		ldr	r1, [r3, #32]
 4882 005c 0A40     		ands	r2, r2, r1
 4883 005e 1AB9     		cbnz	r2, .L656
 4884 0060 1A68     		ldr	r2, [r3]
 4885 0062 22F00102 		bic	r2, r2, #1
 4886 0066 1A60     		str	r2, [r3]
 4887              	.L656:
 4888 0068 0123     		movs	r3, #1
 4889 006a 84F83930 		strb	r3, [r4, #57]
 4890 006e 0020     		movs	r0, #0
 4891 0070 10BD     		pop	{r4, pc}
 4893              		.ident	"GCC: (4.9.2-10+14~bpo8+1) 4.9.2"
ARM GAS  /tmp/cciUsAoE.s 			page 84

