ARM GAS  /tmp/cchDob7b.s 			page 1


   1              		.syntax unified
   2              		.cpu cortex-m3
   3              		.fpu softvfp
   4              		.eabi_attribute 20, 1
   5              		.eabi_attribute 21, 1
   6              		.eabi_attribute 23, 3
   7              		.eabi_attribute 24, 1
   8              		.eabi_attribute 25, 1
   9              		.eabi_attribute 26, 1
  10              		.eabi_attribute 30, 6
  11              		.eabi_attribute 34, 1
  12              		.eabi_attribute 18, 4
  13              		.thumb
  14              		.file	"app_clock.c"
  15              		.text
  16              	.Ltext0:
  17              		.cfi_sections	.debug_frame
  18              		.global	_app_clock
  19              		.section	.data._app_clock,"aw",%progbits
  20              		.align	2
  23              	_app_clock:
  24 0000 00       		.byte	0
  25 0001 000000   		.space	3
  26 0004 00000000 		.word	app_clock_open
  27 0008 00000000 		.word	app_clock_update
  28 000c 00000000 		.word	app_clock_draw
  29 0010 00000000 		.word	app_clock_encoder
  30 0014 00000000 		.word	app_clock_buttons
  31 0018 00000000 		.word	app_clock_can_close
  32 001c 00000000 		.word	app_clock_close
  33              		.section	.text.app_clock,"ax",%progbits
  34              		.align	2
  35              		.global	app_clock
  36              		.thumb
  37              		.thumb_func
  39              	app_clock:
  40              	.LFB63:
  41              		.file 1 "app/app_clock.c"
   1:app/app_clock.c **** #include "app_clock.h"
   2:app/app_clock.c **** #include "speaker.h"
   3:app/app_clock.c **** 
   4:app/app_clock.c **** App_Struct _app_clock = {
   5:app/app_clock.c ****     APP_CLOCK_ID,
   6:app/app_clock.c ****     &app_clock_open,
   7:app/app_clock.c ****     &app_clock_update,
   8:app/app_clock.c ****     &app_clock_draw,
   9:app/app_clock.c ****     &app_clock_encoder,
  10:app/app_clock.c ****     &app_clock_buttons,
  11:app/app_clock.c ****     &app_clock_can_close,
  12:app/app_clock.c ****     &app_clock_close
  13:app/app_clock.c **** };
  14:app/app_clock.c **** 
  15:app/app_clock.c **** App_Struct * app_clock() { return &_app_clock; }
  42              		.loc 1 15 0
  43              		.cfi_startproc
  44              		@ args = 0, pretend = 0, frame = 0
  45              		@ frame_needed = 1, uses_anonymous_args = 0
ARM GAS  /tmp/cchDob7b.s 			page 2


  46              		@ link register save eliminated.
  47 0000 80B4     		push	{r7}
  48              	.LCFI0:
  49              		.cfi_def_cfa_offset 4
  50              		.cfi_offset 7, -4
  51 0002 00AF     		add	r7, sp, #0
  52              	.LCFI1:
  53              		.cfi_def_cfa_register 7
  54              		.loc 1 15 0
  55 0004 024B     		ldr	r3, .L3
  56 0006 1846     		mov	r0, r3
  57 0008 BD46     		mov	sp, r7
  58              	.LCFI2:
  59              		.cfi_def_cfa_register 13
  60              		@ sp needed
  61 000a 5DF8047B 		ldr	r7, [sp], #4
  62              	.LCFI3:
  63              		.cfi_restore 7
  64              		.cfi_def_cfa_offset 0
  65 000e 7047     		bx	lr
  66              	.L4:
  67              		.align	2
  68              	.L3:
  69 0010 00000000 		.word	_app_clock
  70              		.cfi_endproc
  71              	.LFE63:
  73              		.section	.text.app_clock_open,"ax",%progbits
  74              		.align	2
  75              		.global	app_clock_open
  76              		.thumb
  77              		.thumb_func
  79              	app_clock_open:
  80              	.LFB64:
  16:app/app_clock.c **** 
  17:app/app_clock.c **** void app_clock_open()
  18:app/app_clock.c **** {
  81              		.loc 1 18 0
  82              		.cfi_startproc
  83              		@ args = 0, pretend = 0, frame = 0
  84              		@ frame_needed = 1, uses_anonymous_args = 0
  85              		@ link register save eliminated.
  86 0000 80B4     		push	{r7}
  87              	.LCFI4:
  88              		.cfi_def_cfa_offset 4
  89              		.cfi_offset 7, -4
  90 0002 00AF     		add	r7, sp, #0
  91              	.LCFI5:
  92              		.cfi_def_cfa_register 7
  19:app/app_clock.c ****     
  20:app/app_clock.c **** }
  93              		.loc 1 20 0
  94 0004 BD46     		mov	sp, r7
  95              	.LCFI6:
  96              		.cfi_def_cfa_register 13
  97              		@ sp needed
  98 0006 5DF8047B 		ldr	r7, [sp], #4
  99              	.LCFI7:
ARM GAS  /tmp/cchDob7b.s 			page 3


 100              		.cfi_restore 7
 101              		.cfi_def_cfa_offset 0
 102 000a 7047     		bx	lr
 103              		.cfi_endproc
 104              	.LFE64:
 106              		.section	.text.app_clock_update,"ax",%progbits
 107              		.align	2
 108              		.global	app_clock_update
 109              		.thumb
 110              		.thumb_func
 112              	app_clock_update:
 113              	.LFB65:
  21:app/app_clock.c **** 
  22:app/app_clock.c **** void app_clock_update()
  23:app/app_clock.c **** {
 114              		.loc 1 23 0
 115              		.cfi_startproc
 116              		@ args = 0, pretend = 0, frame = 0
 117              		@ frame_needed = 1, uses_anonymous_args = 0
 118              		@ link register save eliminated.
 119 0000 80B4     		push	{r7}
 120              	.LCFI8:
 121              		.cfi_def_cfa_offset 4
 122              		.cfi_offset 7, -4
 123 0002 00AF     		add	r7, sp, #0
 124              	.LCFI9:
 125              		.cfi_def_cfa_register 7
  24:app/app_clock.c **** }
 126              		.loc 1 24 0
 127 0004 BD46     		mov	sp, r7
 128              	.LCFI10:
 129              		.cfi_def_cfa_register 13
 130              		@ sp needed
 131 0006 5DF8047B 		ldr	r7, [sp], #4
 132              	.LCFI11:
 133              		.cfi_restore 7
 134              		.cfi_def_cfa_offset 0
 135 000a 7047     		bx	lr
 136              		.cfi_endproc
 137              	.LFE65:
 139              		.section	.rodata
 140              		.align	2
 141              	.LC0:
 142 0000 74696D65 		.ascii	"time: %02d:%02d:%02d\000"
 142      3A202530 
 142      32643A25 
 142      3032643A 
 142      25303264 
 143 0015 000000   		.align	2
 144              	.LC1:
 145 0018 616C6172 		.ascii	"alarm:%d %02d:%02d\000"
 145      6D3A2564 
 145      20253032 
 145      643A2530 
 145      326400
 146 002b 00       		.section	.text.app_clock_draw,"ax",%progbits
 147              		.align	2
ARM GAS  /tmp/cchDob7b.s 			page 4


 148              		.global	app_clock_draw
 149              		.thumb
 150              		.thumb_func
 152              	app_clock_draw:
 153              	.LFB66:
  25:app/app_clock.c **** void app_clock_draw()
  26:app/app_clock.c **** {
 154              		.loc 1 26 0
 155              		.cfi_startproc
 156              		@ args = 0, pretend = 0, frame = 8
 157              		@ frame_needed = 1, uses_anonymous_args = 0
 158 0000 80B5     		push	{r7, lr}
 159              	.LCFI12:
 160              		.cfi_def_cfa_offset 8
 161              		.cfi_offset 7, -8
 162              		.cfi_offset 14, -4
 163 0002 82B0     		sub	sp, sp, #8
 164              	.LCFI13:
 165              		.cfi_def_cfa_offset 16
 166 0004 00AF     		add	r7, sp, #0
 167              	.LCFI14:
 168              		.cfi_def_cfa_register 7
  27:app/app_clock.c ****     RTC_TimeTypeDef * tm = clock_get_time();
 169              		.loc 1 27 0
 170 0006 FFF7FEFF 		bl	clock_get_time
 171 000a 7860     		str	r0, [r7, #4]
  28:app/app_clock.c ****     Clock_AlarmReg * ar = clock_alarm_get();
 172              		.loc 1 28 0
 173 000c FFF7FEFF 		bl	clock_alarm_get
 174 0010 0346     		mov	r3, r0
 175 0012 3B60     		str	r3, [r7]
  29:app/app_clock.c ****     hd44780_position(0, 0);
 176              		.loc 1 29 0
 177 0014 0020     		movs	r0, #0
 178 0016 0021     		movs	r1, #0
 179 0018 FFF7FEFF 		bl	hd44780_position
  30:app/app_clock.c ****     hd44780_printf("time: %02d:%02d:%02d",  tm->Hours, tm->Minutes, tm->Seconds);
 180              		.loc 1 30 0
 181 001c 7B68     		ldr	r3, [r7, #4]
 182 001e 1B78     		ldrb	r3, [r3]	@ zero_extendqisi2
 183 0020 1946     		mov	r1, r3
 184 0022 7B68     		ldr	r3, [r7, #4]
 185 0024 5B78     		ldrb	r3, [r3, #1]	@ zero_extendqisi2
 186 0026 1A46     		mov	r2, r3
 187 0028 7B68     		ldr	r3, [r7, #4]
 188 002a 9B78     		ldrb	r3, [r3, #2]	@ zero_extendqisi2
 189 002c 0E48     		ldr	r0, .L8
 190 002e FFF7FEFF 		bl	hd44780_printf
  31:app/app_clock.c **** 
  32:app/app_clock.c ****     hd44780_position(1, 0);
 191              		.loc 1 32 0
 192 0032 0120     		movs	r0, #1
 193 0034 0021     		movs	r1, #0
 194 0036 FFF7FEFF 		bl	hd44780_position
  33:app/app_clock.c ****     hd44780_printf("alarm:%d %02d:%02d", ar->enabled, ar->hour, ar->minute);
 195              		.loc 1 33 0
 196 003a 3B68     		ldr	r3, [r7]
ARM GAS  /tmp/cchDob7b.s 			page 5


 197 003c 1B78     		ldrb	r3, [r3]
 198 003e C3F30003 		ubfx	r3, r3, #0, #1
 199 0042 DBB2     		uxtb	r3, r3
 200 0044 1946     		mov	r1, r3
 201 0046 3B68     		ldr	r3, [r7]
 202 0048 1B78     		ldrb	r3, [r3]
 203 004a C3F34403 		ubfx	r3, r3, #1, #5
 204 004e DBB2     		uxtb	r3, r3
 205 0050 1A46     		mov	r2, r3
 206 0052 3B68     		ldr	r3, [r7]
 207 0054 5B78     		ldrb	r3, [r3, #1]
 208 0056 C3F30503 		ubfx	r3, r3, #0, #6
 209 005a DBB2     		uxtb	r3, r3
 210 005c 0348     		ldr	r0, .L8+4
 211 005e FFF7FEFF 		bl	hd44780_printf
  34:app/app_clock.c **** }
 212              		.loc 1 34 0
 213 0062 0837     		adds	r7, r7, #8
 214              	.LCFI15:
 215              		.cfi_def_cfa_offset 8
 216 0064 BD46     		mov	sp, r7
 217              	.LCFI16:
 218              		.cfi_def_cfa_register 13
 219              		@ sp needed
 220 0066 80BD     		pop	{r7, pc}
 221              	.L9:
 222              		.align	2
 223              	.L8:
 224 0068 00000000 		.word	.LC0
 225 006c 18000000 		.word	.LC1
 226              		.cfi_endproc
 227              	.LFE66:
 229              		.section	.text.app_clock_encoder,"ax",%progbits
 230              		.align	2
 231              		.global	app_clock_encoder
 232              		.thumb
 233              		.thumb_func
 235              	app_clock_encoder:
 236              	.LFB67:
  35:app/app_clock.c **** void app_clock_encoder(int16_t val, int16_t del)
  36:app/app_clock.c **** {
 237              		.loc 1 36 0
 238              		.cfi_startproc
 239              		@ args = 0, pretend = 0, frame = 8
 240              		@ frame_needed = 1, uses_anonymous_args = 0
 241              		@ link register save eliminated.
 242 0000 80B4     		push	{r7}
 243              	.LCFI17:
 244              		.cfi_def_cfa_offset 4
 245              		.cfi_offset 7, -4
 246 0002 83B0     		sub	sp, sp, #12
 247              	.LCFI18:
 248              		.cfi_def_cfa_offset 16
 249 0004 00AF     		add	r7, sp, #0
 250              	.LCFI19:
 251              		.cfi_def_cfa_register 7
 252 0006 0346     		mov	r3, r0
ARM GAS  /tmp/cchDob7b.s 			page 6


 253 0008 0A46     		mov	r2, r1
 254 000a FB80     		strh	r3, [r7, #6]	@ movhi
 255 000c 1346     		mov	r3, r2	@ movhi
 256 000e BB80     		strh	r3, [r7, #4]	@ movhi
  37:app/app_clock.c **** }
 257              		.loc 1 37 0
 258 0010 0C37     		adds	r7, r7, #12
 259              	.LCFI20:
 260              		.cfi_def_cfa_offset 4
 261 0012 BD46     		mov	sp, r7
 262              	.LCFI21:
 263              		.cfi_def_cfa_register 13
 264              		@ sp needed
 265 0014 5DF8047B 		ldr	r7, [sp], #4
 266              	.LCFI22:
 267              		.cfi_restore 7
 268              		.cfi_def_cfa_offset 0
 269 0018 7047     		bx	lr
 270              		.cfi_endproc
 271              	.LFE67:
 273              		.global	lc
 274 001a 00BF     		.section	.data.lc,"aw",%progbits
 277              	lc:
 278 0000 01       		.byte	1
 279              		.section	.text.app_clock_buttons,"ax",%progbits
 280              		.align	2
 281              		.global	app_clock_buttons
 282              		.thumb
 283              		.thumb_func
 285              	app_clock_buttons:
 286              	.LFB68:
  38:app/app_clock.c **** uint8_t lc = 1;;
  39:app/app_clock.c **** void app_clock_buttons(uint8_t b, uint8_t e)
  40:app/app_clock.c **** {
 287              		.loc 1 40 0
 288              		.cfi_startproc
 289              		@ args = 0, pretend = 0, frame = 8
 290              		@ frame_needed = 1, uses_anonymous_args = 0
 291 0000 80B5     		push	{r7, lr}
 292              	.LCFI23:
 293              		.cfi_def_cfa_offset 8
 294              		.cfi_offset 7, -8
 295              		.cfi_offset 14, -4
 296 0002 82B0     		sub	sp, sp, #8
 297              	.LCFI24:
 298              		.cfi_def_cfa_offset 16
 299 0004 00AF     		add	r7, sp, #0
 300              	.LCFI25:
 301              		.cfi_def_cfa_register 7
 302 0006 0346     		mov	r3, r0
 303 0008 0A46     		mov	r2, r1
 304 000a FB71     		strb	r3, [r7, #7]
 305 000c 1346     		mov	r3, r2
 306 000e BB71     		strb	r3, [r7, #6]
  41:app/app_clock.c ****     if(b == BIFrontGreen && e == CONTROLS_CLICK)
 307              		.loc 1 41 0
 308 0010 FB79     		ldrb	r3, [r7, #7]	@ zero_extendqisi2
ARM GAS  /tmp/cchDob7b.s 			page 7


 309 0012 012B     		cmp	r3, #1
 310 0014 11D1     		bne	.L12
 311              		.loc 1 41 0 is_stmt 0 discriminator 1
 312 0016 BB79     		ldrb	r3, [r7, #6]	@ zero_extendqisi2
 313 0018 012B     		cmp	r3, #1
 314 001a 0ED1     		bne	.L12
  42:app/app_clock.c ****     {
  43:app/app_clock.c **** 	lc = !lc;
 315              		.loc 1 43 0 is_stmt 1
 316 001c 0E4B     		ldr	r3, .L14
 317 001e 1B78     		ldrb	r3, [r3]	@ zero_extendqisi2
 318 0020 002B     		cmp	r3, #0
 319 0022 0CBF     		ite	eq
 320 0024 0123     		moveq	r3, #1
 321 0026 0023     		movne	r3, #0
 322 0028 DBB2     		uxtb	r3, r3
 323 002a 1A46     		mov	r2, r3
 324 002c 0A4B     		ldr	r3, .L14
 325 002e 1A70     		strb	r2, [r3]
  44:app/app_clock.c **** 	hd44780_brightness(lc);
 326              		.loc 1 44 0
 327 0030 094B     		ldr	r3, .L14
 328 0032 1B78     		ldrb	r3, [r3]	@ zero_extendqisi2
 329 0034 1846     		mov	r0, r3
 330 0036 FFF7FEFF 		bl	hd44780_brightness
 331              	.L12:
  45:app/app_clock.c **** 	//clock_alarm_set(1, 2, 31);
  46:app/app_clock.c ****     }
  47:app/app_clock.c ****     
  48:app/app_clock.c ****     if(b == BIFrontRed && e == CONTROLS_CLICK)
 332              		.loc 1 48 0
 333 003a FB79     		ldrb	r3, [r7, #7]	@ zero_extendqisi2
 334 003c 002B     		cmp	r3, #0
 335 003e 07D1     		bne	.L11
 336              		.loc 1 48 0 is_stmt 0 discriminator 1
 337 0040 BB79     		ldrb	r3, [r7, #6]	@ zero_extendqisi2
 338 0042 012B     		cmp	r3, #1
 339 0044 04D1     		bne	.L11
  49:app/app_clock.c ****     {
  50:app/app_clock.c **** 	clock_alarm_set(1, 7, 53);
 340              		.loc 1 50 0 is_stmt 1
 341 0046 0120     		movs	r0, #1
 342 0048 0721     		movs	r1, #7
 343 004a 3522     		movs	r2, #53
 344 004c FFF7FEFF 		bl	clock_alarm_set
 345              	.L11:
  51:app/app_clock.c ****     }
  52:app/app_clock.c **** }
 346              		.loc 1 52 0
 347 0050 0837     		adds	r7, r7, #8
 348              	.LCFI26:
 349              		.cfi_def_cfa_offset 8
 350 0052 BD46     		mov	sp, r7
 351              	.LCFI27:
 352              		.cfi_def_cfa_register 13
 353              		@ sp needed
 354 0054 80BD     		pop	{r7, pc}
ARM GAS  /tmp/cchDob7b.s 			page 8


 355              	.L15:
 356 0056 00BF     		.align	2
 357              	.L14:
 358 0058 00000000 		.word	lc
 359              		.cfi_endproc
 360              	.LFE68:
 362              		.section	.text.app_clock_can_close,"ax",%progbits
 363              		.align	2
 364              		.global	app_clock_can_close
 365              		.thumb
 366              		.thumb_func
 368              	app_clock_can_close:
 369              	.LFB69:
  53:app/app_clock.c **** 
  54:app/app_clock.c **** uint8_t app_clock_can_close() { return 1; }
 370              		.loc 1 54 0
 371              		.cfi_startproc
 372              		@ args = 0, pretend = 0, frame = 0
 373              		@ frame_needed = 1, uses_anonymous_args = 0
 374              		@ link register save eliminated.
 375 0000 80B4     		push	{r7}
 376              	.LCFI28:
 377              		.cfi_def_cfa_offset 4
 378              		.cfi_offset 7, -4
 379 0002 00AF     		add	r7, sp, #0
 380              	.LCFI29:
 381              		.cfi_def_cfa_register 7
 382              		.loc 1 54 0
 383 0004 0123     		movs	r3, #1
 384 0006 1846     		mov	r0, r3
 385 0008 BD46     		mov	sp, r7
 386              	.LCFI30:
 387              		.cfi_def_cfa_register 13
 388              		@ sp needed
 389 000a 5DF8047B 		ldr	r7, [sp], #4
 390              	.LCFI31:
 391              		.cfi_restore 7
 392              		.cfi_def_cfa_offset 0
 393 000e 7047     		bx	lr
 394              		.cfi_endproc
 395              	.LFE69:
 397              		.section	.text.app_clock_close,"ax",%progbits
 398              		.align	2
 399              		.global	app_clock_close
 400              		.thumb
 401              		.thumb_func
 403              	app_clock_close:
 404              	.LFB70:
  55:app/app_clock.c **** uint8_t app_clock_close() { return 1; }
 405              		.loc 1 55 0
 406              		.cfi_startproc
 407              		@ args = 0, pretend = 0, frame = 0
 408              		@ frame_needed = 1, uses_anonymous_args = 0
 409              		@ link register save eliminated.
 410 0000 80B4     		push	{r7}
 411              	.LCFI32:
 412              		.cfi_def_cfa_offset 4
ARM GAS  /tmp/cchDob7b.s 			page 9


 413              		.cfi_offset 7, -4
 414 0002 00AF     		add	r7, sp, #0
 415              	.LCFI33:
 416              		.cfi_def_cfa_register 7
 417              		.loc 1 55 0
 418 0004 0123     		movs	r3, #1
 419 0006 1846     		mov	r0, r3
 420 0008 BD46     		mov	sp, r7
 421              	.LCFI34:
 422              		.cfi_def_cfa_register 13
 423              		@ sp needed
 424 000a 5DF8047B 		ldr	r7, [sp], #4
 425              	.LCFI35:
 426              		.cfi_restore 7
 427              		.cfi_def_cfa_offset 0
 428 000e 7047     		bx	lr
 429              		.cfi_endproc
 430              	.LFE70:
 432              		.text
 433              	.Letext0:
 434              		.file 2 "/usr/include/newlib/machine/_default_types.h"
 435              		.file 3 "/usr/include/newlib/stdint.h"
 436              		.file 4 "Drivers/STM32F1xx_HAL_Driver/Inc/stm32f1xx_hal_rtc.h"
 437              		.file 5 "sys/clock.h"
 438              		.file 6 "app/app.h"
 439              		.file 7 "Drivers/CMSIS/Include/core_cm3.h"
ARM GAS  /tmp/cchDob7b.s 			page 10

