ARM GAS  /tmp/ccZjdh9x.s 			page 1


   1              		.syntax unified
   2              		.cpu cortex-m3
   3              		.fpu softvfp
   4              		.eabi_attribute 20, 1
   5              		.eabi_attribute 21, 1
   6              		.eabi_attribute 23, 3
   7              		.eabi_attribute 24, 1
   8              		.eabi_attribute 25, 1
   9              		.eabi_attribute 26, 1
  10              		.eabi_attribute 30, 6
  11              		.eabi_attribute 34, 1
  12              		.eabi_attribute 18, 4
  13              		.thumb
  14              		.file	"app_set_time.c"
  15              		.text
  16              	.Ltext0:
  17              		.cfi_sections	.debug_frame
  18              		.global	_app_set_time
  19              		.section	.data._app_set_time,"aw",%progbits
  20              		.align	2
  23              	_app_set_time:
  24 0000 01       		.byte	1
  25 0001 000000   		.space	3
  26 0004 00000000 		.word	app_set_time_open
  27 0008 00000000 		.word	app_set_time_update
  28 000c 00000000 		.word	app_set_time_draw
  29 0010 00000000 		.word	app_set_time_encoder
  30 0014 00000000 		.word	app_set_time_buttons
  31 0018 00000000 		.word	app_set_time_can_close
  32 001c 00000000 		.word	app_set_time_close
  33              		.section	.text.app_set_time,"ax",%progbits
  34              		.align	2
  35              		.global	app_set_time
  36              		.thumb
  37              		.thumb_func
  39              	app_set_time:
  40              	.LFB63:
  41              		.file 1 "app/app_set_time.c"
   1:app/app_set_time.c **** #include "app_set_time.h"
   2:app/app_set_time.c **** 
   3:app/app_set_time.c **** App_Struct _app_set_time = {
   4:app/app_set_time.c ****     APP_SET_TIME_ID,
   5:app/app_set_time.c ****     &app_set_time_open,
   6:app/app_set_time.c ****     &app_set_time_update,
   7:app/app_set_time.c ****     &app_set_time_draw,
   8:app/app_set_time.c ****     &app_set_time_encoder,
   9:app/app_set_time.c ****     &app_set_time_buttons,
  10:app/app_set_time.c ****     &app_set_time_can_close,
  11:app/app_set_time.c ****     &app_set_time_close
  12:app/app_set_time.c **** };
  13:app/app_set_time.c **** 
  14:app/app_set_time.c **** App_Struct * app_set_time(){ return &_app_set_time; }
  42              		.loc 1 14 0
  43              		.cfi_startproc
  44              		@ args = 0, pretend = 0, frame = 0
  45              		@ frame_needed = 1, uses_anonymous_args = 0
  46              		@ link register save eliminated.
ARM GAS  /tmp/ccZjdh9x.s 			page 2


  47 0000 80B4     		push	{r7}
  48              	.LCFI0:
  49              		.cfi_def_cfa_offset 4
  50              		.cfi_offset 7, -4
  51 0002 00AF     		add	r7, sp, #0
  52              	.LCFI1:
  53              		.cfi_def_cfa_register 7
  54              		.loc 1 14 0
  55 0004 024B     		ldr	r3, .L3
  56 0006 1846     		mov	r0, r3
  57 0008 BD46     		mov	sp, r7
  58              	.LCFI2:
  59              		.cfi_def_cfa_register 13
  60              		@ sp needed
  61 000a 5DF8047B 		ldr	r7, [sp], #4
  62              	.LCFI3:
  63              		.cfi_restore 7
  64              		.cfi_def_cfa_offset 0
  65 000e 7047     		bx	lr
  66              	.L4:
  67              		.align	2
  68              	.L3:
  69 0010 00000000 		.word	_app_set_time
  70              		.cfi_endproc
  71              	.LFE63:
  73              		.section	.text.app_set_time_init,"ax",%progbits
  74              		.align	2
  75              		.global	app_set_time_init
  76              		.thumb
  77              		.thumb_func
  79              	app_set_time_init:
  80              	.LFB64:
  15:app/app_set_time.c **** 
  16:app/app_set_time.c **** void app_set_time_init()
  17:app/app_set_time.c **** {
  81              		.loc 1 17 0
  82              		.cfi_startproc
  83              		@ args = 0, pretend = 0, frame = 0
  84              		@ frame_needed = 1, uses_anonymous_args = 0
  85              		@ link register save eliminated.
  86 0000 80B4     		push	{r7}
  87              	.LCFI4:
  88              		.cfi_def_cfa_offset 4
  89              		.cfi_offset 7, -4
  90 0002 00AF     		add	r7, sp, #0
  91              	.LCFI5:
  92              		.cfi_def_cfa_register 7
  18:app/app_set_time.c **** }
  93              		.loc 1 18 0
  94 0004 BD46     		mov	sp, r7
  95              	.LCFI6:
  96              		.cfi_def_cfa_register 13
  97              		@ sp needed
  98 0006 5DF8047B 		ldr	r7, [sp], #4
  99              	.LCFI7:
 100              		.cfi_restore 7
 101              		.cfi_def_cfa_offset 0
ARM GAS  /tmp/ccZjdh9x.s 			page 3


 102 000a 7047     		bx	lr
 103              		.cfi_endproc
 104              	.LFE64:
 106              		.comm	stage,1,1
 107              		.comm	sec,1,1
 108              		.comm	min,1,1
 109              		.comm	hour,1,1
 110              		.section	.text.app_set_time_open,"ax",%progbits
 111              		.align	2
 112              		.global	app_set_time_open
 113              		.thumb
 114              		.thumb_func
 116              	app_set_time_open:
 117              	.LFB65:
  19:app/app_set_time.c **** 
  20:app/app_set_time.c **** uint8_t stage,
  21:app/app_set_time.c ****     sec, min, hour;
  22:app/app_set_time.c **** 
  23:app/app_set_time.c **** void app_set_time_open()
  24:app/app_set_time.c **** {
 118              		.loc 1 24 0
 119              		.cfi_startproc
 120              		@ args = 0, pretend = 0, frame = 8
 121              		@ frame_needed = 1, uses_anonymous_args = 0
 122 0000 80B5     		push	{r7, lr}
 123              	.LCFI8:
 124              		.cfi_def_cfa_offset 8
 125              		.cfi_offset 7, -8
 126              		.cfi_offset 14, -4
 127 0002 82B0     		sub	sp, sp, #8
 128              	.LCFI9:
 129              		.cfi_def_cfa_offset 16
 130 0004 00AF     		add	r7, sp, #0
 131              	.LCFI10:
 132              		.cfi_def_cfa_register 7
  25:app/app_set_time.c ****     RTC_TimeTypeDef * tm = clock_get_time();
 133              		.loc 1 25 0
 134 0006 FFF7FEFF 		bl	clock_get_time
 135 000a 7860     		str	r0, [r7, #4]
  26:app/app_set_time.c ****     stage = 0;
 136              		.loc 1 26 0
 137 000c 084B     		ldr	r3, .L7
 138 000e 0022     		movs	r2, #0
 139 0010 1A70     		strb	r2, [r3]
  27:app/app_set_time.c ****     sec = tm->Seconds;
 140              		.loc 1 27 0
 141 0012 7B68     		ldr	r3, [r7, #4]
 142 0014 9A78     		ldrb	r2, [r3, #2]	@ zero_extendqisi2
 143 0016 074B     		ldr	r3, .L7+4
 144 0018 1A70     		strb	r2, [r3]
  28:app/app_set_time.c ****     min = tm->Minutes;
 145              		.loc 1 28 0
 146 001a 7B68     		ldr	r3, [r7, #4]
 147 001c 5A78     		ldrb	r2, [r3, #1]	@ zero_extendqisi2
 148 001e 064B     		ldr	r3, .L7+8
 149 0020 1A70     		strb	r2, [r3]
  29:app/app_set_time.c ****     hour = tm->Hours;
ARM GAS  /tmp/ccZjdh9x.s 			page 4


 150              		.loc 1 29 0
 151 0022 7B68     		ldr	r3, [r7, #4]
 152 0024 1A78     		ldrb	r2, [r3]	@ zero_extendqisi2
 153 0026 054B     		ldr	r3, .L7+12
 154 0028 1A70     		strb	r2, [r3]
  30:app/app_set_time.c **** }
 155              		.loc 1 30 0
 156 002a 0837     		adds	r7, r7, #8
 157              	.LCFI11:
 158              		.cfi_def_cfa_offset 8
 159 002c BD46     		mov	sp, r7
 160              	.LCFI12:
 161              		.cfi_def_cfa_register 13
 162              		@ sp needed
 163 002e 80BD     		pop	{r7, pc}
 164              	.L8:
 165              		.align	2
 166              	.L7:
 167 0030 00000000 		.word	stage
 168 0034 00000000 		.word	sec
 169 0038 00000000 		.word	min
 170 003c 00000000 		.word	hour
 171              		.cfi_endproc
 172              	.LFE65:
 174              		.section	.text.app_set_time_update,"ax",%progbits
 175              		.align	2
 176              		.global	app_set_time_update
 177              		.thumb
 178              		.thumb_func
 180              	app_set_time_update:
 181              	.LFB66:
  31:app/app_set_time.c **** 
  32:app/app_set_time.c **** void app_set_time_update()
  33:app/app_set_time.c **** {
 182              		.loc 1 33 0
 183              		.cfi_startproc
 184              		@ args = 0, pretend = 0, frame = 8
 185              		@ frame_needed = 1, uses_anonymous_args = 0
 186 0000 80B5     		push	{r7, lr}
 187              	.LCFI13:
 188              		.cfi_def_cfa_offset 8
 189              		.cfi_offset 7, -8
 190              		.cfi_offset 14, -4
 191 0002 82B0     		sub	sp, sp, #8
 192              	.LCFI14:
 193              		.cfi_def_cfa_offset 16
 194 0004 00AF     		add	r7, sp, #0
 195              	.LCFI15:
 196              		.cfi_def_cfa_register 7
  34:app/app_set_time.c ****     if(stage == 0)
 197              		.loc 1 34 0
 198 0006 0B4B     		ldr	r3, .L11
 199 0008 1B78     		ldrb	r3, [r3]	@ zero_extendqisi2
 200 000a 002B     		cmp	r3, #0
 201 000c 0ED1     		bne	.L9
 202              	.LBB2:
  35:app/app_set_time.c ****     {
ARM GAS  /tmp/ccZjdh9x.s 			page 5


  36:app/app_set_time.c **** 	RTC_TimeTypeDef * tm = clock_get_time();
 203              		.loc 1 36 0
 204 000e FFF7FEFF 		bl	clock_get_time
 205 0012 7860     		str	r0, [r7, #4]
  37:app/app_set_time.c **** 	sec = tm->Seconds;
 206              		.loc 1 37 0
 207 0014 7B68     		ldr	r3, [r7, #4]
 208 0016 9A78     		ldrb	r2, [r3, #2]	@ zero_extendqisi2
 209 0018 074B     		ldr	r3, .L11+4
 210 001a 1A70     		strb	r2, [r3]
  38:app/app_set_time.c **** 	min = tm->Minutes;
 211              		.loc 1 38 0
 212 001c 7B68     		ldr	r3, [r7, #4]
 213 001e 5A78     		ldrb	r2, [r3, #1]	@ zero_extendqisi2
 214 0020 064B     		ldr	r3, .L11+8
 215 0022 1A70     		strb	r2, [r3]
  39:app/app_set_time.c **** 	hour = tm->Hours;
 216              		.loc 1 39 0
 217 0024 7B68     		ldr	r3, [r7, #4]
 218 0026 1A78     		ldrb	r2, [r3]	@ zero_extendqisi2
 219 0028 054B     		ldr	r3, .L11+12
 220 002a 1A70     		strb	r2, [r3]
 221              	.L9:
 222              	.LBE2:
  40:app/app_set_time.c ****     }
  41:app/app_set_time.c **** }
 223              		.loc 1 41 0
 224 002c 0837     		adds	r7, r7, #8
 225              	.LCFI16:
 226              		.cfi_def_cfa_offset 8
 227 002e BD46     		mov	sp, r7
 228              	.LCFI17:
 229              		.cfi_def_cfa_register 13
 230              		@ sp needed
 231 0030 80BD     		pop	{r7, pc}
 232              	.L12:
 233 0032 00BF     		.align	2
 234              	.L11:
 235 0034 00000000 		.word	stage
 236 0038 00000000 		.word	sec
 237 003c 00000000 		.word	min
 238 0040 00000000 		.word	hour
 239              		.cfi_endproc
 240              	.LFE66:
 242              		.section	.rodata
 243              		.align	2
 244              	.LC0:
 245 0000 54696D65 		.ascii	"Time settings\000"
 245      20736574 
 245      74696E67 
 245      7300
 246 000e 0000     		.align	2
 247              	.LC1:
 248 0010 25303264 		.ascii	"%02d:%02d:%02d\000"
 248      3A253032 
 248      643A2530 
 248      326400
ARM GAS  /tmp/ccZjdh9x.s 			page 6


 249 001f 00       		.align	2
 250              	.LC2:
 251 0020 3E253032 		.ascii	">%02d:%02d:%02d\000"
 251      643A2530 
 251      32643A25 
 251      30326400 
 252              		.align	2
 253              	.LC3:
 254 0030 25303264 		.ascii	"%02d:>%02d:%02d\000"
 254      3A3E2530 
 254      32643A25 
 254      30326400 
 255              		.align	2
 256              	.LC4:
 257 0040 25303264 		.ascii	"%02d:%02d:>%02d\000"
 257      3A253032 
 257      643A3E25 
 257      30326400 
 258              		.align	2
 259              	.LC5:
 260 0050 6F6B2025 		.ascii	"ok %02d:%02d:%02d canc\000"
 260      3032643A 
 260      25303264 
 260      3A253032 
 260      64206361 
 261 0067 00       		.section	.text.app_set_time_draw,"ax",%progbits
 262              		.align	2
 263              		.global	app_set_time_draw
 264              		.thumb
 265              		.thumb_func
 267              	app_set_time_draw:
 268              	.LFB67:
  42:app/app_set_time.c **** 
  43:app/app_set_time.c **** void app_set_time_draw()
  44:app/app_set_time.c **** {
 269              		.loc 1 44 0
 270              		.cfi_startproc
 271              		@ args = 0, pretend = 0, frame = 0
 272              		@ frame_needed = 1, uses_anonymous_args = 0
 273 0000 80B5     		push	{r7, lr}
 274              	.LCFI18:
 275              		.cfi_def_cfa_offset 8
 276              		.cfi_offset 7, -8
 277              		.cfi_offset 14, -4
 278 0002 00AF     		add	r7, sp, #0
 279              	.LCFI19:
 280              		.cfi_def_cfa_register 7
  45:app/app_set_time.c ****     hd44780_position(0, 0);
 281              		.loc 1 45 0
 282 0004 0020     		movs	r0, #0
 283 0006 0021     		movs	r1, #0
 284 0008 FFF7FEFF 		bl	hd44780_position
  46:app/app_set_time.c ****     hd44780_printf("Time settings");
 285              		.loc 1 46 0
 286 000c 2A48     		ldr	r0, .L21
 287 000e FFF7FEFF 		bl	hd44780_printf
  47:app/app_set_time.c ****     hd44780_position(1, 0);
ARM GAS  /tmp/ccZjdh9x.s 			page 7


 288              		.loc 1 47 0
 289 0012 0120     		movs	r0, #1
 290 0014 0021     		movs	r1, #0
 291 0016 FFF7FEFF 		bl	hd44780_position
  48:app/app_set_time.c ****     switch(stage)
 292              		.loc 1 48 0
 293 001a 284B     		ldr	r3, .L21+4
 294 001c 1B78     		ldrb	r3, [r3]	@ zero_extendqisi2
 295 001e 042B     		cmp	r3, #4
 296 0020 48D8     		bhi	.L13
 297 0022 01A2     		adr	r2, .L16
 298 0024 52F823F0 		ldr	pc, [r2, r3, lsl #2]
 299              		.p2align 2
 300              	.L16:
 301 0028 3D000000 		.word	.L15+1
 302 002c 55000000 		.word	.L17+1
 303 0030 6D000000 		.word	.L18+1
 304 0034 85000000 		.word	.L19+1
 305 0038 9D000000 		.word	.L20+1
 306              		.p2align 1
 307              	.L15:
  49:app/app_set_time.c ****     {
  50:app/app_set_time.c ****     case 0: hd44780_printf("%02d:%02d:%02d",  hour, min, sec); break;
 308              		.loc 1 50 0
 309 003c 204B     		ldr	r3, .L21+8
 310 003e 1B78     		ldrb	r3, [r3]	@ zero_extendqisi2
 311 0040 1946     		mov	r1, r3
 312 0042 204B     		ldr	r3, .L21+12
 313 0044 1B78     		ldrb	r3, [r3]	@ zero_extendqisi2
 314 0046 1A46     		mov	r2, r3
 315 0048 1F4B     		ldr	r3, .L21+16
 316 004a 1B78     		ldrb	r3, [r3]	@ zero_extendqisi2
 317 004c 1F48     		ldr	r0, .L21+20
 318 004e FFF7FEFF 		bl	hd44780_printf
 319 0052 2FE0     		b	.L13
 320              	.L17:
  51:app/app_set_time.c ****     case 1: hd44780_printf(">%02d:%02d:%02d", hour, min, sec); break;
 321              		.loc 1 51 0
 322 0054 1A4B     		ldr	r3, .L21+8
 323 0056 1B78     		ldrb	r3, [r3]	@ zero_extendqisi2
 324 0058 1946     		mov	r1, r3
 325 005a 1A4B     		ldr	r3, .L21+12
 326 005c 1B78     		ldrb	r3, [r3]	@ zero_extendqisi2
 327 005e 1A46     		mov	r2, r3
 328 0060 194B     		ldr	r3, .L21+16
 329 0062 1B78     		ldrb	r3, [r3]	@ zero_extendqisi2
 330 0064 1A48     		ldr	r0, .L21+24
 331 0066 FFF7FEFF 		bl	hd44780_printf
 332 006a 23E0     		b	.L13
 333              	.L18:
  52:app/app_set_time.c ****     case 2: hd44780_printf("%02d:>%02d:%02d", hour, min, sec); break;
 334              		.loc 1 52 0
 335 006c 144B     		ldr	r3, .L21+8
 336 006e 1B78     		ldrb	r3, [r3]	@ zero_extendqisi2
 337 0070 1946     		mov	r1, r3
 338 0072 144B     		ldr	r3, .L21+12
 339 0074 1B78     		ldrb	r3, [r3]	@ zero_extendqisi2
ARM GAS  /tmp/ccZjdh9x.s 			page 8


 340 0076 1A46     		mov	r2, r3
 341 0078 134B     		ldr	r3, .L21+16
 342 007a 1B78     		ldrb	r3, [r3]	@ zero_extendqisi2
 343 007c 1548     		ldr	r0, .L21+28
 344 007e FFF7FEFF 		bl	hd44780_printf
 345 0082 17E0     		b	.L13
 346              	.L19:
  53:app/app_set_time.c ****     case 3: hd44780_printf("%02d:%02d:>%02d", hour, min, sec); break;
 347              		.loc 1 53 0
 348 0084 0E4B     		ldr	r3, .L21+8
 349 0086 1B78     		ldrb	r3, [r3]	@ zero_extendqisi2
 350 0088 1946     		mov	r1, r3
 351 008a 0E4B     		ldr	r3, .L21+12
 352 008c 1B78     		ldrb	r3, [r3]	@ zero_extendqisi2
 353 008e 1A46     		mov	r2, r3
 354 0090 0D4B     		ldr	r3, .L21+16
 355 0092 1B78     		ldrb	r3, [r3]	@ zero_extendqisi2
 356 0094 1048     		ldr	r0, .L21+32
 357 0096 FFF7FEFF 		bl	hd44780_printf
 358 009a 0BE0     		b	.L13
 359              	.L20:
  54:app/app_set_time.c ****     case 4: hd44780_printf("ok %02d:%02d:%02d canc", hour, min, sec); break;
 360              		.loc 1 54 0
 361 009c 084B     		ldr	r3, .L21+8
 362 009e 1B78     		ldrb	r3, [r3]	@ zero_extendqisi2
 363 00a0 1946     		mov	r1, r3
 364 00a2 084B     		ldr	r3, .L21+12
 365 00a4 1B78     		ldrb	r3, [r3]	@ zero_extendqisi2
 366 00a6 1A46     		mov	r2, r3
 367 00a8 074B     		ldr	r3, .L21+16
 368 00aa 1B78     		ldrb	r3, [r3]	@ zero_extendqisi2
 369 00ac 0B48     		ldr	r0, .L21+36
 370 00ae FFF7FEFF 		bl	hd44780_printf
 371 00b2 00BF     		nop
 372              	.L13:
  55:app/app_set_time.c ****     }
  56:app/app_set_time.c **** }
 373              		.loc 1 56 0
 374 00b4 80BD     		pop	{r7, pc}
 375              	.L22:
 376 00b6 00BF     		.align	2
 377              	.L21:
 378 00b8 00000000 		.word	.LC0
 379 00bc 00000000 		.word	stage
 380 00c0 00000000 		.word	hour
 381 00c4 00000000 		.word	min
 382 00c8 00000000 		.word	sec
 383 00cc 10000000 		.word	.LC1
 384 00d0 20000000 		.word	.LC2
 385 00d4 30000000 		.word	.LC3
 386 00d8 40000000 		.word	.LC4
 387 00dc 50000000 		.word	.LC5
 388              		.cfi_endproc
 389              	.LFE67:
 391              		.section	.text.app_set_time_encoder,"ax",%progbits
 392              		.align	2
 393              		.global	app_set_time_encoder
ARM GAS  /tmp/ccZjdh9x.s 			page 9


 394              		.thumb
 395              		.thumb_func
 397              	app_set_time_encoder:
 398              	.LFB68:
  57:app/app_set_time.c **** 
  58:app/app_set_time.c **** void app_set_time_encoder(int16_t val , int16_t d)
  59:app/app_set_time.c **** {
 399              		.loc 1 59 0
 400              		.cfi_startproc
 401              		@ args = 0, pretend = 0, frame = 8
 402              		@ frame_needed = 1, uses_anonymous_args = 0
 403              		@ link register save eliminated.
 404 0000 80B4     		push	{r7}
 405              	.LCFI20:
 406              		.cfi_def_cfa_offset 4
 407              		.cfi_offset 7, -4
 408 0002 83B0     		sub	sp, sp, #12
 409              	.LCFI21:
 410              		.cfi_def_cfa_offset 16
 411 0004 00AF     		add	r7, sp, #0
 412              	.LCFI22:
 413              		.cfi_def_cfa_register 7
 414 0006 0346     		mov	r3, r0
 415 0008 0A46     		mov	r2, r1
 416 000a FB80     		strh	r3, [r7, #6]	@ movhi
 417 000c 1346     		mov	r3, r2	@ movhi
 418 000e BB80     		strh	r3, [r7, #4]	@ movhi
  60:app/app_set_time.c ****     switch(stage)
 419              		.loc 1 60 0
 420 0010 0D4B     		ldr	r3, .L28
 421 0012 1B78     		ldrb	r3, [r3]	@ zero_extendqisi2
 422 0014 022B     		cmp	r3, #2
 423 0016 08D0     		beq	.L25
 424 0018 032B     		cmp	r3, #3
 425 001a 0BD0     		beq	.L26
 426 001c 012B     		cmp	r3, #1
 427 001e 0ED1     		bne	.L23
  61:app/app_set_time.c ****     {
  62:app/app_set_time.c ****     case 1: hour = val; break;
 428              		.loc 1 62 0
 429 0020 FB88     		ldrh	r3, [r7, #6]	@ movhi
 430 0022 DAB2     		uxtb	r2, r3
 431 0024 094B     		ldr	r3, .L28+4
 432 0026 1A70     		strb	r2, [r3]
 433 0028 09E0     		b	.L23
 434              	.L25:
  63:app/app_set_time.c ****     case 2: min = val; break;
 435              		.loc 1 63 0
 436 002a FB88     		ldrh	r3, [r7, #6]	@ movhi
 437 002c DAB2     		uxtb	r2, r3
 438 002e 084B     		ldr	r3, .L28+8
 439 0030 1A70     		strb	r2, [r3]
 440 0032 04E0     		b	.L23
 441              	.L26:
  64:app/app_set_time.c ****     case 3: sec = val; break;
 442              		.loc 1 64 0
 443 0034 FB88     		ldrh	r3, [r7, #6]	@ movhi
ARM GAS  /tmp/ccZjdh9x.s 			page 10


 444 0036 DAB2     		uxtb	r2, r3
 445 0038 064B     		ldr	r3, .L28+12
 446 003a 1A70     		strb	r2, [r3]
 447 003c 00BF     		nop
 448              	.L23:
  65:app/app_set_time.c ****     }
  66:app/app_set_time.c **** }
 449              		.loc 1 66 0
 450 003e 0C37     		adds	r7, r7, #12
 451              	.LCFI23:
 452              		.cfi_def_cfa_offset 4
 453 0040 BD46     		mov	sp, r7
 454              	.LCFI24:
 455              		.cfi_def_cfa_register 13
 456              		@ sp needed
 457 0042 5DF8047B 		ldr	r7, [sp], #4
 458              	.LCFI25:
 459              		.cfi_restore 7
 460              		.cfi_def_cfa_offset 0
 461 0046 7047     		bx	lr
 462              	.L29:
 463              		.align	2
 464              	.L28:
 465 0048 00000000 		.word	stage
 466 004c 00000000 		.word	hour
 467 0050 00000000 		.word	min
 468 0054 00000000 		.word	sec
 469              		.cfi_endproc
 470              	.LFE68:
 472              		.section	.text.app_set_time_buttons,"ax",%progbits
 473              		.align	2
 474              		.global	app_set_time_buttons
 475              		.thumb
 476              		.thumb_func
 478              	app_set_time_buttons:
 479              	.LFB69:
  67:app/app_set_time.c **** 
  68:app/app_set_time.c **** void app_set_time_buttons(uint8_t b, uint8_t e)
  69:app/app_set_time.c **** {
 480              		.loc 1 69 0
 481              		.cfi_startproc
 482              		@ args = 0, pretend = 0, frame = 8
 483              		@ frame_needed = 1, uses_anonymous_args = 0
 484 0000 80B5     		push	{r7, lr}
 485              	.LCFI26:
 486              		.cfi_def_cfa_offset 8
 487              		.cfi_offset 7, -8
 488              		.cfi_offset 14, -4
 489 0002 82B0     		sub	sp, sp, #8
 490              	.LCFI27:
 491              		.cfi_def_cfa_offset 16
 492 0004 00AF     		add	r7, sp, #0
 493              	.LCFI28:
 494              		.cfi_def_cfa_register 7
 495 0006 0346     		mov	r3, r0
 496 0008 0A46     		mov	r2, r1
 497 000a FB71     		strb	r3, [r7, #7]
ARM GAS  /tmp/ccZjdh9x.s 			page 11


 498 000c 1346     		mov	r3, r2
 499 000e BB71     		strb	r3, [r7, #6]
  70:app/app_set_time.c ****     if(e == CONTROLS_CLICK)
 500              		.loc 1 70 0
 501 0010 BB79     		ldrb	r3, [r7, #6]	@ zero_extendqisi2
 502 0012 012B     		cmp	r3, #1
 503 0014 5DD1     		bne	.L30
  71:app/app_set_time.c ****     {
  72:app/app_set_time.c **** 	if(stage < 4)
 504              		.loc 1 72 0
 505 0016 304B     		ldr	r3, .L40
 506 0018 1B78     		ldrb	r3, [r3]	@ zero_extendqisi2
 507 001a 032B     		cmp	r3, #3
 508 001c 3ED8     		bhi	.L32
  73:app/app_set_time.c **** 	{
  74:app/app_set_time.c **** 	    stage += (b == BIFrontGreen && stage != 0) * (-1) + (b == BIFrontRed);
 509              		.loc 1 74 0
 510 001e FB79     		ldrb	r3, [r7, #7]	@ zero_extendqisi2
 511 0020 002B     		cmp	r3, #0
 512 0022 0CBF     		ite	eq
 513 0024 0123     		moveq	r3, #1
 514 0026 0023     		movne	r3, #0
 515 0028 DBB2     		uxtb	r3, r3
 516 002a 1A46     		mov	r2, r3
 517 002c FB79     		ldrb	r3, [r7, #7]	@ zero_extendqisi2
 518 002e 012B     		cmp	r3, #1
 519 0030 05D1     		bne	.L33
 520              		.loc 1 74 0 is_stmt 0 discriminator 1
 521 0032 294B     		ldr	r3, .L40
 522 0034 1B78     		ldrb	r3, [r3]	@ zero_extendqisi2
 523 0036 002B     		cmp	r3, #0
 524 0038 01D0     		beq	.L33
 525              		.loc 1 74 0 discriminator 3
 526 003a 0123     		movs	r3, #1
 527 003c 00E0     		b	.L34
 528              	.L33:
 529              		.loc 1 74 0 discriminator 4
 530 003e 0023     		movs	r3, #0
 531              	.L34:
 532              		.loc 1 74 0 discriminator 6
 533 0040 DBB2     		uxtb	r3, r3
 534 0042 D31A     		subs	r3, r2, r3
 535 0044 DAB2     		uxtb	r2, r3
 536 0046 244B     		ldr	r3, .L40
 537 0048 1B78     		ldrb	r3, [r3]	@ zero_extendqisi2
 538 004a 1344     		add	r3, r3, r2
 539 004c DAB2     		uxtb	r2, r3
 540 004e 224B     		ldr	r3, .L40
 541 0050 1A70     		strb	r2, [r3]
  75:app/app_set_time.c **** 	    if(stage == 1)	
 542              		.loc 1 75 0 is_stmt 1 discriminator 6
 543 0052 214B     		ldr	r3, .L40
 544 0054 1B78     		ldrb	r3, [r3]	@ zero_extendqisi2
 545 0056 012B     		cmp	r3, #1
 546 0058 07D1     		bne	.L35
  76:app/app_set_time.c **** 		apps_preset_encoder(hour, APPS_ENCODER_TIME24);
 547              		.loc 1 76 0
ARM GAS  /tmp/ccZjdh9x.s 			page 12


 548 005a 204B     		ldr	r3, .L40+4
 549 005c 1B78     		ldrb	r3, [r3]	@ zero_extendqisi2
 550 005e 9BB2     		uxth	r3, r3
 551 0060 1BB2     		sxth	r3, r3
 552 0062 1846     		mov	r0, r3
 553 0064 0221     		movs	r1, #2
 554 0066 FFF7FEFF 		bl	apps_preset_encoder
 555              	.L35:
  77:app/app_set_time.c **** 	    if(stage == 2)	
 556              		.loc 1 77 0
 557 006a 1B4B     		ldr	r3, .L40
 558 006c 1B78     		ldrb	r3, [r3]	@ zero_extendqisi2
 559 006e 022B     		cmp	r3, #2
 560 0070 07D1     		bne	.L36
  78:app/app_set_time.c **** 		apps_preset_encoder(min, APPS_ENCODER_TIME60);
 561              		.loc 1 78 0
 562 0072 1B4B     		ldr	r3, .L40+8
 563 0074 1B78     		ldrb	r3, [r3]	@ zero_extendqisi2
 564 0076 9BB2     		uxth	r3, r3
 565 0078 1BB2     		sxth	r3, r3
 566 007a 1846     		mov	r0, r3
 567 007c 0121     		movs	r1, #1
 568 007e FFF7FEFF 		bl	apps_preset_encoder
 569              	.L36:
  79:app/app_set_time.c **** 	    if(stage == 3)	
 570              		.loc 1 79 0
 571 0082 154B     		ldr	r3, .L40
 572 0084 1B78     		ldrb	r3, [r3]	@ zero_extendqisi2
 573 0086 032B     		cmp	r3, #3
 574 0088 21D1     		bne	.L38
  80:app/app_set_time.c **** 		apps_preset_encoder(sec, APPS_ENCODER_TIME60);	
 575              		.loc 1 80 0
 576 008a 164B     		ldr	r3, .L40+12
 577 008c 1B78     		ldrb	r3, [r3]	@ zero_extendqisi2
 578 008e 9BB2     		uxth	r3, r3
 579 0090 1BB2     		sxth	r3, r3
 580 0092 1846     		mov	r0, r3
 581 0094 0121     		movs	r1, #1
 582 0096 FFF7FEFF 		bl	apps_preset_encoder
 583 009a 18E0     		b	.L38
 584              	.L32:
  81:app/app_set_time.c **** 	}
  82:app/app_set_time.c **** 	else if (stage == 4)
 585              		.loc 1 82 0
 586 009c 0E4B     		ldr	r3, .L40
 587 009e 1B78     		ldrb	r3, [r3]	@ zero_extendqisi2
 588 00a0 042B     		cmp	r3, #4
 589 00a2 14D1     		bne	.L38
  83:app/app_set_time.c **** 	{
  84:app/app_set_time.c **** 	    if(b == BIFrontGreen)
 590              		.loc 1 84 0
 591 00a4 FB79     		ldrb	r3, [r7, #7]	@ zero_extendqisi2
 592 00a6 012B     		cmp	r3, #1
 593 00a8 0ED1     		bne	.L39
  85:app/app_set_time.c **** 	    {
  86:app/app_set_time.c **** 		stage = 0;
 594              		.loc 1 86 0
ARM GAS  /tmp/ccZjdh9x.s 			page 13


 595 00aa 0B4B     		ldr	r3, .L40
 596 00ac 0022     		movs	r2, #0
 597 00ae 1A70     		strb	r2, [r3]
  87:app/app_set_time.c **** 		clock_set_time(hour, min, sec);
 598              		.loc 1 87 0
 599 00b0 0A4B     		ldr	r3, .L40+4
 600 00b2 1978     		ldrb	r1, [r3]	@ zero_extendqisi2
 601 00b4 0A4B     		ldr	r3, .L40+8
 602 00b6 1A78     		ldrb	r2, [r3]	@ zero_extendqisi2
 603 00b8 0A4B     		ldr	r3, .L40+12
 604 00ba 1B78     		ldrb	r3, [r3]	@ zero_extendqisi2
 605 00bc 0846     		mov	r0, r1
 606 00be 1146     		mov	r1, r2
 607 00c0 1A46     		mov	r2, r3
 608 00c2 FFF7FEFF 		bl	clock_set_time
 609 00c6 02E0     		b	.L38
 610              	.L39:
  88:app/app_set_time.c **** 	    }
  89:app/app_set_time.c **** 	    else
  90:app/app_set_time.c **** 		stage = 0;
 611              		.loc 1 90 0
 612 00c8 034B     		ldr	r3, .L40
 613 00ca 0022     		movs	r2, #0
 614 00cc 1A70     		strb	r2, [r3]
 615              	.L38:
  91:app/app_set_time.c **** 	}
  92:app/app_set_time.c **** 	hd44780_clear();
 616              		.loc 1 92 0
 617 00ce FFF7FEFF 		bl	hd44780_clear
 618              	.L30:
  93:app/app_set_time.c ****     }
  94:app/app_set_time.c **** }
 619              		.loc 1 94 0
 620 00d2 0837     		adds	r7, r7, #8
 621              	.LCFI29:
 622              		.cfi_def_cfa_offset 8
 623 00d4 BD46     		mov	sp, r7
 624              	.LCFI30:
 625              		.cfi_def_cfa_register 13
 626              		@ sp needed
 627 00d6 80BD     		pop	{r7, pc}
 628              	.L41:
 629              		.align	2
 630              	.L40:
 631 00d8 00000000 		.word	stage
 632 00dc 00000000 		.word	hour
 633 00e0 00000000 		.word	min
 634 00e4 00000000 		.word	sec
 635              		.cfi_endproc
 636              	.LFE69:
 638              		.section	.text.app_set_time_can_close,"ax",%progbits
 639              		.align	2
 640              		.global	app_set_time_can_close
 641              		.thumb
 642              		.thumb_func
 644              	app_set_time_can_close:
 645              	.LFB70:
ARM GAS  /tmp/ccZjdh9x.s 			page 14


  95:app/app_set_time.c **** 
  96:app/app_set_time.c **** uint8_t app_set_time_can_close() { return 1; }
 646              		.loc 1 96 0
 647              		.cfi_startproc
 648              		@ args = 0, pretend = 0, frame = 0
 649              		@ frame_needed = 1, uses_anonymous_args = 0
 650              		@ link register save eliminated.
 651 0000 80B4     		push	{r7}
 652              	.LCFI31:
 653              		.cfi_def_cfa_offset 4
 654              		.cfi_offset 7, -4
 655 0002 00AF     		add	r7, sp, #0
 656              	.LCFI32:
 657              		.cfi_def_cfa_register 7
 658              		.loc 1 96 0
 659 0004 0123     		movs	r3, #1
 660 0006 1846     		mov	r0, r3
 661 0008 BD46     		mov	sp, r7
 662              	.LCFI33:
 663              		.cfi_def_cfa_register 13
 664              		@ sp needed
 665 000a 5DF8047B 		ldr	r7, [sp], #4
 666              	.LCFI34:
 667              		.cfi_restore 7
 668              		.cfi_def_cfa_offset 0
 669 000e 7047     		bx	lr
 670              		.cfi_endproc
 671              	.LFE70:
 673              		.section	.text.app_set_time_close,"ax",%progbits
 674              		.align	2
 675              		.global	app_set_time_close
 676              		.thumb
 677              		.thumb_func
 679              	app_set_time_close:
 680              	.LFB71:
  97:app/app_set_time.c **** 
  98:app/app_set_time.c **** uint8_t app_set_time_close() { return 1; }
 681              		.loc 1 98 0
 682              		.cfi_startproc
 683              		@ args = 0, pretend = 0, frame = 0
 684              		@ frame_needed = 1, uses_anonymous_args = 0
 685              		@ link register save eliminated.
 686 0000 80B4     		push	{r7}
 687              	.LCFI35:
 688              		.cfi_def_cfa_offset 4
 689              		.cfi_offset 7, -4
 690 0002 00AF     		add	r7, sp, #0
 691              	.LCFI36:
 692              		.cfi_def_cfa_register 7
 693              		.loc 1 98 0
 694 0004 0123     		movs	r3, #1
 695 0006 1846     		mov	r0, r3
 696 0008 BD46     		mov	sp, r7
 697              	.LCFI37:
 698              		.cfi_def_cfa_register 13
 699              		@ sp needed
 700 000a 5DF8047B 		ldr	r7, [sp], #4
ARM GAS  /tmp/ccZjdh9x.s 			page 15


 701              	.LCFI38:
 702              		.cfi_restore 7
 703              		.cfi_def_cfa_offset 0
 704 000e 7047     		bx	lr
 705              		.cfi_endproc
 706              	.LFE71:
 708              		.text
 709              	.Letext0:
 710              		.file 2 "/usr/include/newlib/machine/_default_types.h"
 711              		.file 3 "/usr/include/newlib/stdint.h"
 712              		.file 4 "Drivers/STM32F1xx_HAL_Driver/Inc/stm32f1xx_hal_rtc.h"
 713              		.file 5 "app/app.h"
 714              		.file 6 "Drivers/CMSIS/Include/core_cm3.h"
ARM GAS  /tmp/ccZjdh9x.s 			page 16

